
test.elf:     file format elf32-littlenios2
test.elf
architecture: nios2:r1, flags 0x00000112:
EXEC_P, HAS_SYMS, D_PAGED
start address 0x04000228

Program Header:
    LOAD off    0x00001020 vaddr 0x08040020 paddr 0x04000000 align 2**12
         filesz 0x00000228 memsz 0x00000228 flags r-x
    LOAD off    0x00002228 vaddr 0x04000228 paddr 0x04000228 align 2**12
         filesz 0x00009dbc memsz 0x00009dbc flags r-x
    LOAD off    0x0000bfe4 vaddr 0x04009fe4 paddr 0x0400a398 align 2**12
         filesz 0x000003b4 memsz 0x000003b4 flags rw-
    LOAD off    0x0000c74c vaddr 0x0400a74c paddr 0x0400a74c align 2**12
         filesz 0x00000000 memsz 0x00000130 flags rw-
    LOAD off    0x0000d000 vaddr 0x08040000 paddr 0x08040000 align 2**12
         filesz 0x00000020 memsz 0x00000020 flags r-x

Sections:
Idx Name          Size      VMA       LMA       File off  Algn
  0 .entry        00000020  08040000  08040000  0000d000  2**5
                  CONTENTS, ALLOC, LOAD, READONLY, CODE
  1 .exceptions   00000228  08040020  04000000  00001020  2**2
                  CONTENTS, ALLOC, LOAD, READONLY, CODE
  2 .text         00009a0c  04000228  04000228  00002228  2**2
                  CONTENTS, ALLOC, LOAD, READONLY, CODE
  3 .rodata       000003b0  04009c34  04009c34  0000bc34  2**2
                  CONTENTS, ALLOC, LOAD, READONLY, DATA
  4 .rwdata       000003b4  04009fe4  0400a398  0000bfe4  2**2
                  CONTENTS, ALLOC, LOAD, DATA, SMALL_DATA
  5 .bss          00000130  0400a74c  0400a74c  0000c74c  2**2
                  ALLOC, SMALL_DATA
  6 .new_sdram_controller_0 00000000  0400a87c  0400a87c  0000d020  2**0
                  CONTENTS
  7 .onchip_memory2_0 00000000  08040248  08040248  0000d020  2**0
                  CONTENTS
  8 .comment      00000023  00000000  00000000  0000d020  2**0
                  CONTENTS, READONLY
  9 .debug_aranges 00000a48  00000000  00000000  0000d048  2**3
                  CONTENTS, READONLY, DEBUGGING
 10 .debug_info   0000d630  00000000  00000000  0000da90  2**0
                  CONTENTS, READONLY, DEBUGGING
 11 .debug_abbrev 00004ef5  00000000  00000000  0001b0c0  2**0
                  CONTENTS, READONLY, DEBUGGING
 12 .debug_line   00006669  00000000  00000000  0001ffb5  2**0
                  CONTENTS, READONLY, DEBUGGING
 13 .debug_frame  00001624  00000000  00000000  00026620  2**2
                  CONTENTS, READONLY, DEBUGGING
 14 .debug_str    0000305b  00000000  00000000  00027c44  2**0
                  CONTENTS, READONLY, DEBUGGING
 15 .debug_loc    0000a5d1  00000000  00000000  0002ac9f  2**0
                  CONTENTS, READONLY, DEBUGGING
 16 .debug_alt_sim_info 00000060  00000000  00000000  00035270  2**2
                  CONTENTS, READONLY, DEBUGGING
 17 .debug_ranges 00001150  00000000  00000000  000352d0  2**3
                  CONTENTS, READONLY, DEBUGGING
 18 .thread_model 00000003  00000000  00000000  00038c2e  2**0
                  CONTENTS, READONLY
 19 .cpu          0000000c  00000000  00000000  00038c31  2**0
                  CONTENTS, READONLY
 20 .qsys         00000001  00000000  00000000  00038c3d  2**0
                  CONTENTS, READONLY
 21 .simulation_enabled 00000001  00000000  00000000  00038c3e  2**0
                  CONTENTS, READONLY
 22 .sysid_hash   00000004  00000000  00000000  00038c3f  2**0
                  CONTENTS, READONLY
 23 .sysid_base   00000004  00000000  00000000  00038c43  2**0
                  CONTENTS, READONLY
 24 .sysid_time   00000004  00000000  00000000  00038c47  2**0
                  CONTENTS, READONLY
 25 .stderr_dev   0000000b  00000000  00000000  00038c4b  2**0
                  CONTENTS, READONLY
 26 .stdin_dev    0000000b  00000000  00000000  00038c56  2**0
                  CONTENTS, READONLY
 27 .stdout_dev   0000000b  00000000  00000000  00038c61  2**0
                  CONTENTS, READONLY
 28 .sopc_system_name 0000000c  00000000  00000000  00038c6c  2**0
                  CONTENTS, READONLY
 29 .quartus_project_dir 00000048  00000000  00000000  00038c78  2**0
                  CONTENTS, READONLY
 30 .jdi          00005be8  00000000  00000000  00038cc0  2**0
                  CONTENTS, READONLY
 31 .sopcinfo     00083f96  00000000  00000000  0003e8a8  2**0
                  CONTENTS, READONLY
SYMBOL TABLE:
08040000 l    d  .entry	00000000 .entry
08040020 l    d  .exceptions	00000000 .exceptions
04000228 l    d  .text	00000000 .text
04009c34 l    d  .rodata	00000000 .rodata
04009fe4 l    d  .rwdata	00000000 .rwdata
0400a74c l    d  .bss	00000000 .bss
0400a87c l    d  .new_sdram_controller_0	00000000 .new_sdram_controller_0
08040248 l    d  .onchip_memory2_0	00000000 .onchip_memory2_0
00000000 l    d  .comment	00000000 .comment
00000000 l    d  .debug_aranges	00000000 .debug_aranges
00000000 l    d  .debug_info	00000000 .debug_info
00000000 l    d  .debug_abbrev	00000000 .debug_abbrev
00000000 l    d  .debug_line	00000000 .debug_line
00000000 l    d  .debug_frame	00000000 .debug_frame
00000000 l    d  .debug_str	00000000 .debug_str
00000000 l    d  .debug_loc	00000000 .debug_loc
00000000 l    d  .debug_alt_sim_info	00000000 .debug_alt_sim_info
00000000 l    d  .debug_ranges	00000000 .debug_ranges
00000000 l    df *ABS*	00000000 ../test_bsp//obj/HAL/src/crt0.o
04000270 l       .text	00000000 alt_after_alt_main
00000000 l    df *ABS*	00000000 alt_irq_handler.c
00000000 l    df *ABS*	00000000 alt_instruction_exception_entry.c
00000000 l    df *ABS*	00000000 accel_sketch.c
00000000 l    df *ABS*	00000000 s_round.c
00000000 l    df *ABS*	00000000 s_sin.c
00000000 l    df *ABS*	00000000 sf_round.c
00000000 l    df *ABS*	00000000 e_rem_pio2.c
04009d00 l     O .rodata	00000108 two_over_pi
04009c80 l     O .rodata	00000080 npio2_hw
00000000 l    df *ABS*	00000000 k_cos.c
00000000 l    df *ABS*	00000000 k_rem_pio2.c
04009e48 l     O .rodata	00000010 init_jk
04009e08 l     O .rodata	00000040 PIo2
00000000 l    df *ABS*	00000000 k_sin.c
00000000 l    df *ABS*	00000000 s_fabs.c
00000000 l    df *ABS*	00000000 s_floor.c
00000000 l    df *ABS*	00000000 s_scalbn.c
00000000 l    df *ABS*	00000000 s_copysign.c
00000000 l    df *ABS*	00000000 lib2-divmod.c
00000000 l    df *ABS*	00000000 addsf3.c
00000000 l    df *ABS*	00000000 divsf3.c
00000000 l    df *ABS*	00000000 eqsf2.c
00000000 l    df *ABS*	00000000 gesf2.c
00000000 l    df *ABS*	00000000 lesf2.c
00000000 l    df *ABS*	00000000 mulsf3.c
00000000 l    df *ABS*	00000000 subsf3.c
00000000 l    df *ABS*	00000000 fixsfsi.c
00000000 l    df *ABS*	00000000 floatsisf.c
00000000 l    df *ABS*	00000000 adddf3.c
00000000 l    df *ABS*	00000000 eqdf2.c
00000000 l    df *ABS*	00000000 gedf2.c
00000000 l    df *ABS*	00000000 muldf3.c
00000000 l    df *ABS*	00000000 subdf3.c
00000000 l    df *ABS*	00000000 fixdfsi.c
00000000 l    df *ABS*	00000000 floatsidf.c
00000000 l    df *ABS*	00000000 extendsfdf2.c
00000000 l    df *ABS*	00000000 libgcc2.c
00000000 l    df *ABS*	00000000 libgcc2.c
00000000 l    df *ABS*	00000000 printf.c
00000000 l    df *ABS*	00000000 vfprintf.c
040066a4 l     F .text	0000006c print_repeat
00000000 l    df *ABS*	00000000 fvwrite_small_dev.c
00000000 l    df *ABS*	00000000 impure.c
04009fe4 l     O .rwdata	000000e0 impure_data
00000000 l    df *ABS*	00000000 strlen.c
00000000 l    df *ABS*	00000000 writer.c
00000000 l    df *ABS*	00000000 int_errno.c
00000000 l    df *ABS*	00000000 alt_irq_register.c
00000000 l    df *ABS*	00000000 alt_irq_vars.c
00000000 l    df *ABS*	00000000 alt_load.c
04006efc l     F .text	00000068 alt_load_section
00000000 l    df *ABS*	00000000 alt_main.c
00000000 l    df *ABS*	00000000 alt_usleep.c
00000000 l    df *ABS*	00000000 alt_write.c
04007094 l     F .text	0000003c alt_get_errno
00000000 l    df *ABS*	00000000 alt_sys_init.c
040071c8 l     F .text	00000034 alt_dev_reg
0400a0c4 l     O .rwdata	0000002c jtag_uart_0
0400a0f0 l     O .rwdata	0000002c accelerometer_spi_0
0400a11c l     O .rwdata	00000054 video_pixel_buffer_dma_0
0400a170 l     O .rwdata	00000044 video_rgb_resampler_0
00000000 l    df *ABS*	00000000 altera_avalon_jtag_uart_fd.c
00000000 l    df *ABS*	00000000 altera_avalon_jtag_uart_read.c
00000000 l    df *ABS*	00000000 altera_avalon_jtag_uart_write.c
00000000 l    df *ABS*	00000000 altera_avalon_timer_sc.c
0400778c l     F .text	0000007c alt_avalon_timer_sc_irq
00000000 l    df *ABS*	00000000 altera_up_avalon_accelerometer_spi.c
00000000 l    df *ABS*	00000000 altera_up_avalon_video_pixel_buffer_dma.c
00000000 l    df *ABS*	00000000 alt_busy_sleep.c
00000000 l    df *ABS*	00000000 alt_close.c
04008c38 l     F .text	0000003c alt_get_errno
00000000 l    df *ABS*	00000000 alt_dcache_flush_all.c
00000000 l    df *ABS*	00000000 alt_dev.c
04008d8c l     F .text	0000002c alt_dev_null_write
00000000 l    df *ABS*	00000000 alt_dev_llist_insert.c
04008db8 l     F .text	0000003c alt_get_errno
00000000 l    df *ABS*	00000000 alt_do_ctors.c
00000000 l    df *ABS*	00000000 alt_do_dtors.c
00000000 l    df *ABS*	00000000 alt_errno.c
00000000 l    df *ABS*	00000000 alt_find_dev.c
00000000 l    df *ABS*	00000000 alt_icache_flush_all.c
00000000 l    df *ABS*	00000000 alt_io_redirect.c
0400901c l     F .text	000000c4 alt_open_fd
00000000 l    df *ABS*	00000000 alt_open.c
0400915c l     F .text	0000003c alt_get_errno
04009198 l     F .text	000000c4 alt_file_locked
00000000 l    df *ABS*	00000000 alt_release_fd.c
00000000 l    df *ABS*	00000000 alt_tick.c
00000000 l    df *ABS*	00000000 altera_nios2_gen2_irq.c
00000000 l    df *ABS*	00000000 alt_find_file.c
00000000 l    df *ABS*	00000000 alt_get_fd.c
00000000 l    df *ABS*	00000000 alt_icache_flush.c
00000000 l    df *ABS*	00000000 atexit.c
00000000 l    df *ABS*	00000000 exit.c
00000000 l    df *ABS*	00000000 memcmp.c
00000000 l    df *ABS*	00000000 __atexit.c
00000000 l    df *ABS*	00000000 __call_atexit.c
00000000 l    df *ABS*	00000000 alt_exit.c
0400a778 g     O .bss	00000004 alt_instruction_exception_handler
04006fe8 g     F .text	0000007c alt_main
04008500 g     F .text	0000024c alt_up_pixel_buffer_dma_draw_vline
0400a77c g     O .bss	00000100 alt_irq
04002e44 g     F .text	00000014 fabs
0400a398 g       *ABS*	00000000 __flash_rwdata_start
040051d4 g     F .text	00000088 .hidden __eqdf2
0400a758 g     O .bss	00000004 timeoutFlag
04006658 g     F .text	0000004c printf
04000f64 g     F .text	00000100 round
04003878 g     F .text	00000440 .hidden __divsf3
0400a35c g     O .rwdata	00000004 x
04004794 g     F .text	00000070 .hidden __fixsfsi
04007c68 g     F .text	00000194 alt_up_pixel_buffer_dma_draw
0400525c g     F .text	000000dc .hidden __gtdf2
040095b8 g     F .text	00000024 altera_nios2_gen2_irq_init
04007c2c g     F .text	0000003c alt_up_pixel_buffer_dma_open_dev
08040000 g     F .entry	0000001c __reset
040079c8 g     F .text	000000cc alt_up_accelerometer_spi_read_x_axis
04000590 g     F .text	00000630 colorCalc
04000000 g       *ABS*	00000000 __flash_exceptions_start
0400a75c g     O .bss	00000004 errno
04002e58 g     F .text	000001ec floor
0400a768 g     O .bss	00000004 alt_argv
0401235c g       *ABS*	00000000 _gp
04007064 g     F .text	00000030 usleep
040042b0 g     F .text	000004e4 .hidden __subsf3
04007dfc g     F .text	0000005c alt_up_pixel_buffer_dma_change_back_buffer_address
0400a1dc g     O .rwdata	00000180 alt_fd_list
040011d8 g     F .text	0000076c __ieee754_rem_pio2
04008f58 g     F .text	00000090 alt_find_dev
040063cc g     F .text	000000dc .hidden __floatsidf
040090e0 g     F .text	0000007c alt_io_redirect
04009c34 g       *ABS*	00000000 __DTOR_END__
04009818 g     F .text	0000009c alt_exception_cause_generated_bad_addr
04000d2c g     F .text	000000fc mapi
04007eb8 g     F .text	00000034 alt_up_pixel_buffer_dma_check_swap_buffers_status
0400760c g     F .text	000000ec altera_avalon_jtag_uart_read
0400661c g     F .text	0000003c _printf_r
08040000 g       *ABS*	00000000 __alt_mem_onchip_memory2_0
040032f4 g     F .text	00000064 .hidden __udivsi3
04001154 g     F .text	00000084 roundf
040082f0 g     F .text	00000210 alt_up_pixel_buffer_dma_draw_hline
04001944 g     F .text	000004a4 __kernel_cos
04003dec g     F .text	000000c8 .hidden __lesf2
04009788 g     F .text	00000090 alt_icache_flush
04008814 g     F .text	00000084 helper_plot_pixel
0400a388 g     O .rwdata	00000004 alt_max_fd
04006d7c g     F .text	00000180 alt_irq_register
0400a364 g     O .rwdata	00000004 xFloat
04002b78 g     F .text	000002cc __kernel_sin
040064a8 g     F .text	00000110 .hidden __extendsfdf2
04004928 g     F .text	000008ac .hidden __adddf3
04003cb8 g     F .text	00000078 .hidden __nesf2
04007eec g     F .text	00000128 alt_up_pixel_buffer_dma_clear_screen
0400a36c g     O .rwdata	00000004 _global_impure_ptr
0400a87c g       *ABS*	00000000 __bss_end
04008014 g     F .text	000002dc alt_up_pixel_buffer_dma_draw_box
040094b0 g     F .text	00000108 alt_tick
04009414 g     F .text	0000009c alt_alarm_stop
0400a760 g     O .bss	00000004 alt_irq_active
080400fc g     F .exceptions	000000d8 alt_irq_handler
0400a1b4 g     O .rwdata	00000028 alt_dev_null
04001de8 g     F .text	00000d90 __kernel_rem_pio2
04008d44 g     F .text	00000048 alt_dcache_flush_all
0400874c g     F .text	000000c8 alt_up_pixel_buffer_dma_draw_rectangle
0400634c g     F .text	00000080 .hidden __fixdfsi
0400a398 g       *ABS*	00000000 __ram_rwdata_end
0400a380 g     O .rwdata	00000008 alt_dev_list
040070d0 g     F .text	000000f8 write
04008898 g     F .text	00000248 alt_up_pixel_buffer_dma_draw_line
04003d30 g     F .text	000000bc .hidden __gtsf2
04009fe4 g       *ABS*	00000000 __ram_rodata_end
04003358 g     F .text	00000058 .hidden __umodsi3
0400a74c g     O .bss	00000004 colorToDraw
0400a87c g       *ABS*	00000000 end
080401d4 g     F .exceptions	00000074 alt_instruction_exception_entry
04009c34 g       *ABS*	00000000 __CTOR_LIST__
08000000 g       *ABS*	00000000 __alt_stack_pointer
04007808 g     F .text	00000074 alt_avalon_timer_sc_init
040065b8 g     F .text	00000064 .hidden __clzsi2
040076f8 g     F .text	00000094 altera_avalon_jtag_uart_write
04006710 g     F .text	00000524 ___vfprintf_internal_r
04009a70 g     F .text	00000190 __call_exitprocs
04000228 g     F .text	0000004c _start
0400a770 g     O .bss	00000004 _alt_tick_rate
04001064 g     F .text	000000f0 sin
0400a774 g     O .bss	00000004 _alt_nticks
04007234 g     F .text	00000318 alt_sys_init
040078b8 g     F .text	00000044 alt_up_accelerometer_spi_read_address_register
04004804 g     F .text	00000124 .hidden __floatsisf
04009918 g     F .text	00000158 __register_exitproc
04009fe4 g       *ABS*	00000000 __ram_rwdata_start
04009c34 g       *ABS*	00000000 __ram_rodata_start
04003cb8 g     F .text	00000078 .hidden __eqsf2
0400754c g     F .text	00000060 altera_avalon_jtag_uart_read_fd
040096e4 g     F .text	000000a4 alt_get_fd
04008ae0 g     F .text	00000158 alt_busy_sleep
04007a94 g     F .text	000000cc alt_up_accelerometer_spi_read_y_axis
040098e8 g     F .text	00000030 memcmp
04000bc0 g     F .text	0000016c cursorMove
0400a87c g       *ABS*	00000000 __alt_stack_base
04005338 g     F .text	00000718 .hidden __muldf3
0400a754 g     O .bss	00000004 tRainbow
040095dc g     F .text	00000108 alt_find_file
04008df4 g     F .text	000000a4 alt_dev_llist_insert
04006c50 g     F .text	000000b8 __sfvwrite_small_dev
0400a74c g       *ABS*	00000000 __bss_start
04000274 g     F .text	0000031c main
0400a76c g     O .bss	00000004 alt_envp
04007e58 g     F .text	00000060 alt_up_pixel_buffer_dma_swap_buffers
040075ac g     F .text	00000060 altera_avalon_jtag_uart_write_fd
04003dec g     F .text	000000c8 .hidden __ltsf2
0400a360 g     O .rwdata	00000004 y
0400a38c g     O .rwdata	00000004 alt_errno
0400a368 g     O .rwdata	00000004 yFloat
040031fc g     F .text	00000084 .hidden __divsi3
04009c34 g       *ABS*	00000000 __CTOR_END__
04003eb4 g     F .text	000003fc .hidden __mulsf3
04009c34 g       *ABS*	00000000 __flash_rodata_start
04009c34 g       *ABS*	00000000 __DTOR_LIST__
040031e0 g     F .text	0000001c copysign
040051d4 g     F .text	00000088 .hidden __nedf2
040071fc g     F .text	00000038 alt_irq_init
040093b0 g     F .text	00000064 alt_release_fd
04000f1c g     F .text	00000048 timer_0_isr
04009e58 g     O .rodata	00000100 .hidden __clz_tab
040098b4 g     F .text	00000014 atexit
04003d30 g     F .text	000000bc .hidden __gesf2
04006d24 g     F .text	00000058 _write_r
0400a370 g     O .rwdata	00000004 _impure_ptr
0400a764 g     O .bss	00000004 alt_argc
04003044 g     F .text	0000019c scalbn
04008ef8 g     F .text	00000060 _do_dtors
08040020 g       .exceptions	00000000 alt_irq_entry
0400a378 g     O .rwdata	00000008 alt_fs_list
08040020 g       *ABS*	00000000 __ram_exceptions_start
0400787c g     F .text	0000003c alt_up_accelerometer_spi_open_dev
04000000 g       *ABS*	00000000 __alt_mem_new_sdram_controller_0
0400a398 g       *ABS*	00000000 _edata
0400a87c g       *ABS*	00000000 _end
08040248 g       *ABS*	00000000 __ram_exceptions_end
040098c8 g     F .text	00000020 exit
04003280 g     F .text	00000074 .hidden __modsi3
04007b60 g     F .text	000000cc alt_up_accelerometer_spi_read_z_axis
08000000 g       *ABS*	00000000 __alt_data_end
08040020 g     F .exceptions	00000000 alt_exception
04009c00 g     F .text	00000034 _exit
040078fc g     F .text	00000068 alt_up_accelerometer_spi_read
04007964 g     F .text	00000064 alt_up_accelerometer_spi_write
04006d08 g     F .text	0000001c strlen
0400925c g     F .text	00000154 open
0400525c g     F .text	000000dc .hidden __gedf2
04008fe8 g     F .text	00000034 alt_icache_flush_all
04000e28 g     F .text	000000f4 mapf
0400a374 g     O .rwdata	00000004 alt_priority_mask
04006c34 g     F .text	0000001c __vfprintf_internal
04005a50 g     F .text	000008fc .hidden __subdf3
0400a390 g     O .rwdata	00000008 alt_alarm_list
04008e98 g     F .text	00000060 _do_ctors
04008c74 g     F .text	000000d0 close
040033b0 g     F .text	000004c8 .hidden __addsf3
0400a750 g     O .bss	00000004 rainbowFlag
04006f64 g     F .text	00000084 alt_load



Disassembly of section .entry:

08040000 <__reset>:
#if NIOS2_ICACHE_SIZE > 0 && defined(ALT_ALLOW_CODE_AT_RESET) && (!defined(ALT_SIM_OPTIMIZE) || defined(NIOS2_ECC_PRESENT))
    /* Assume the instruction cache size is always a power of two. */
#if NIOS2_ICACHE_SIZE > 0x8000
    movhi r2, %hi(NIOS2_ICACHE_SIZE)
#else
    movui r2, NIOS2_ICACHE_SIZE
 8040000:	00840014 	movui	r2,4096
#endif

0:
    initi r2
 8040004:	1001483a 	initi	r2
    addi r2, r2, -NIOS2_ICACHE_LINE_SIZE
 8040008:	10bff804 	addi	r2,r2,-32
    bgt r2, zero, 0b
 804000c:	00bffd16 	blt	zero,r2,8040004 <__ram_exceptions_end+0xfffffdbc>
 * Jump to the _start entry point in the .text section if reset code
 * is allowed or if optimizing for RTL simulation.
 */
#if defined(ALT_ALLOW_CODE_AT_RESET) || defined(ALT_SIM_OPTIMIZE)
    /* Jump to the _start entry point in the .text section. */
    movhi r1, %hi(_start)
 8040010:	00410034 	movhi	at,1024
    ori r1, r1, %lo(_start)
 8040014:	08408a14 	ori	at,at,552
    jmp r1
 8040018:	0800683a 	jmp	at
 804001c:	00000000 	call	0 <__alt_mem_new_sdram_controller_0-0x4000000>

Disassembly of section .exceptions:

08040020 <alt_exception>:

#else /* ALT_EXCEPTION_STACK disabled */
        /* 
         * Reserve space on normal stack for registers about to be pushed.
         */
        addi  sp, sp, -76
 8040020:	deffed04 	addi	sp,sp,-76
         * documentation for details).
         *
         * Leave a gap in the stack frame at 4(sp) for the muldiv handler to
         * store zero into.
         */
        stw   ra,  0(sp)
 8040024:	dfc00015 	stw	ra,0(sp)
        stw   r1,   8(sp)
 8040028:	d8400215 	stw	at,8(sp)
        stw   r2,  12(sp)
 804002c:	d8800315 	stw	r2,12(sp)
        stw   r3,  16(sp)
 8040030:	d8c00415 	stw	r3,16(sp)
        stw   r4,  20(sp)
 8040034:	d9000515 	stw	r4,20(sp)
        stw   r5,  24(sp)
 8040038:	d9400615 	stw	r5,24(sp)
        stw   r6,  28(sp)
 804003c:	d9800715 	stw	r6,28(sp)
        stw   r7,  32(sp)
 8040040:	d9c00815 	stw	r7,32(sp)
        rdctl r5, estatus   /* Read early to avoid usage stall */
 8040044:	000b307a 	rdctl	r5,estatus
        stw   r8,  36(sp)
 8040048:	da000915 	stw	r8,36(sp)
        stw   r9,  40(sp)
 804004c:	da400a15 	stw	r9,40(sp)
        stw   r10, 44(sp)
 8040050:	da800b15 	stw	r10,44(sp)
        stw   r11, 48(sp)
 8040054:	dac00c15 	stw	r11,48(sp)
        stw   r12, 52(sp)
 8040058:	db000d15 	stw	r12,52(sp)
        stw   r13, 56(sp)
 804005c:	db400e15 	stw	r13,56(sp)
        stw   r14, 60(sp)
 8040060:	db800f15 	stw	r14,60(sp)
        stw   r15, 64(sp)
 8040064:	dbc01015 	stw	r15,64(sp)
        /*
         * ea-4 contains the address of the instruction being executed
         * when the exception occured. For interrupt exceptions, we will
         * will be re-issue the isntruction. Store it in 72(sp)
         */
        stw   r5,  68(sp)  /* estatus */
 8040068:	d9401115 	stw	r5,68(sp)
        addi  r15, ea, -4  /* instruction that caused exception */
 804006c:	ebffff04 	addi	r15,ea,-4
        stw   r15,  72(sp)
 8040070:	dbc01215 	stw	r15,72(sp)
#else
        /*
         * Test to see if the exception was a software exception or caused 
         * by an external interrupt, and vector accordingly.
         */
        rdctl r4, ipending
 8040074:	0009313a 	rdctl	r4,ipending
        andi  r2, r5, 1
 8040078:	2880004c 	andi	r2,r5,1
        beq   r2, zero, .Lnot_irq
 804007c:	10000326 	beq	r2,zero,804008c <alt_exception+0x6c>
        beq   r4, zero, .Lnot_irq
 8040080:	20000226 	beq	r4,zero,804008c <alt_exception+0x6c>
        /*
         * Now that all necessary registers have been preserved, call 
         * alt_irq_handler() to process the interrupts.
         */

        call alt_irq_handler
 8040084:	80400fc0 	call	80400fc <alt_irq_handler>

        .section .exceptions.irqreturn, "xa"

        br    .Lexception_exit
 8040088:	00000706 	br	80400a8 <alt_exception+0x88>
         * upon completion, so we write ea (address of instruction *after*
         * the one where the exception occured) into 72(sp). The actual
         * instruction that caused the exception is written in r2, which these
         * handlers will utilize.
         */
        stw ea, 72(sp) /* EA is PC+4 so will skip over instruction causing exception */
 804008c:	df401215 	stw	ea,72(sp)
.Lunknown_16bit:
        addi.n r4, r4, 2 /* Need PC+2 to skip over instruction causing exception */
        stw r4, 72(sp)

#else /* CDX is not Enabled and all instructions are 32bits */
        ldw r2, -4(ea) /* Instruction value that caused exception */
 8040090:	e8bfff17 	ldw	r2,-4(ea)
         * debugger is present) or go into an infinite loop since the
         * handling behavior is undefined; in that case we will not return here.
         */

        /* Load exception-causing address as first argument (r4) */
        addi   r4, ea, -4
 8040094:	e93fff04 	addi	r4,ea,-4

        /* Call the instruction-exception entry */
        call   alt_instruction_exception_entry
 8040098:	80401d40 	call	80401d4 <alt_instruction_exception_entry>
         * instruction
         *
         * Return code was 0: Skip. The instruction after the exception is
         * already stored in 72(sp).
         */
        bne   r2, r0, .Lexception_exit
 804009c:	1000021e 	bne	r2,zero,80400a8 <alt_exception+0x88>

        /*
         * Otherwise, modify 72(sp) to re-issue the instruction that caused the
         * exception.
         */
        addi  r15, ea, -4  /* instruction that caused exception */
 80400a0:	ebffff04 	addi	r15,ea,-4
        stw   r15,  72(sp)
 80400a4:	dbc01215 	stw	r15,72(sp)
        /* 
         * Restore the saved registers, so that all general purpose registers 
         * have been restored to their state at the time the interrupt occured.
         */

        ldw   r5,  68(sp)
 80400a8:	d9401117 	ldw	r5,68(sp)
        ldw   ea,  72(sp)  /* This becomes the PC once eret is executed */
 80400ac:	df401217 	ldw	ea,72(sp)
        ldw   ra,   0(sp)
 80400b0:	dfc00017 	ldw	ra,0(sp)

        wrctl estatus, r5
 80400b4:	2801707a 	wrctl	estatus,r5

        ldw   r1,   8(sp)
 80400b8:	d8400217 	ldw	at,8(sp)
        ldw   r2,  12(sp)
 80400bc:	d8800317 	ldw	r2,12(sp)
        ldw   r3,  16(sp)
 80400c0:	d8c00417 	ldw	r3,16(sp)
        ldw   r4,  20(sp)
 80400c4:	d9000517 	ldw	r4,20(sp)
        ldw   r5,  24(sp)
 80400c8:	d9400617 	ldw	r5,24(sp)
        ldw   r6,  28(sp)
 80400cc:	d9800717 	ldw	r6,28(sp)
        ldw   r7,  32(sp)
 80400d0:	d9c00817 	ldw	r7,32(sp)

#if defined(ALT_EXCEPTION_STACK) && defined(ALT_STACK_CHECK)
        ldw   et, %gprel(alt_exception_old_stack_limit)(gp)
#endif

        ldw   r8,  36(sp)
 80400d4:	da000917 	ldw	r8,36(sp)
        ldw   r9,  40(sp)
 80400d8:	da400a17 	ldw	r9,40(sp)
        ldw   r10, 44(sp)
 80400dc:	da800b17 	ldw	r10,44(sp)
        ldw   r11, 48(sp)
 80400e0:	dac00c17 	ldw	r11,48(sp)
        ldw   r12, 52(sp)
 80400e4:	db000d17 	ldw	r12,52(sp)
        ldw   r13, 56(sp)
 80400e8:	db400e17 	ldw	r13,56(sp)
        ldw   r14, 60(sp)
 80400ec:	db800f17 	ldw	r14,60(sp)
        ldw   r15, 64(sp)
 80400f0:	dbc01017 	ldw	r15,64(sp)
        stw   et, %gprel(alt_stack_limit_value)(gp)
        stw   zero, %gprel(alt_exception_old_stack_limit)(gp)
#endif /* ALT_STACK_CHECK */
        ldw   sp,  76(sp)
#else /* ALT_EXCEPTION_STACK disabled */
        addi  sp, sp, 76
 80400f4:	dec01304 	addi	sp,sp,76

        /*
         * Return to the interrupted instruction.
         */

        eret
 80400f8:	ef80083a 	eret

080400fc <alt_irq_handler>:
 * instruction is present if the macro ALT_CI_INTERRUPT_VECTOR defined.
 */

void alt_irq_handler (void) __attribute__ ((section (".exceptions")));
void alt_irq_handler (void)
{
 80400fc:	defff904 	addi	sp,sp,-28
 8040100:	dfc00615 	stw	ra,24(sp)
 8040104:	df000515 	stw	fp,20(sp)
 8040108:	df000504 	addi	fp,sp,20
  
  /*
   * Notify the operating system that we are at interrupt level.
   */ 
  
  ALT_OS_INT_ENTER();
 804010c:	0001883a 	nop
#ifndef NIOS2_EIC_PRESENT
static ALT_INLINE alt_u32 ALT_ALWAYS_INLINE alt_irq_pending (void)
{
  alt_u32 active;

  NIOS2_READ_IPENDING (active);
 8040110:	0005313a 	rdctl	r2,ipending
 8040114:	e0bffe15 	stw	r2,-8(fp)

  return active;
 8040118:	e0bffe17 	ldw	r2,-8(fp)
   * Consider the case where the high priority interupt is asserted during
   * the interrupt entry sequence for a lower priority interrupt to see why
   * this is the case.
   */

  active = alt_irq_pending ();
 804011c:	e0bffb15 	stw	r2,-20(fp)

  do
  {
    i = 0;
 8040120:	e03ffd15 	stw	zero,-12(fp)
    mask = 1;
 8040124:	00800044 	movi	r2,1
 8040128:	e0bffc15 	stw	r2,-16(fp)
     * called to clear the interrupt condition.
     */

    do
    {
      if (active & mask)
 804012c:	e0fffb17 	ldw	r3,-20(fp)
 8040130:	e0bffc17 	ldw	r2,-16(fp)
 8040134:	1884703a 	and	r2,r3,r2
 8040138:	10001526 	beq	r2,zero,8040190 <alt_irq_handler+0x94>
      { 
#ifdef ALT_ENHANCED_INTERRUPT_API_PRESENT
        alt_irq[i].handler(alt_irq[i].context); 
#else
        alt_irq[i].handler(alt_irq[i].context, i); 
 804013c:	00810074 	movhi	r2,1025
 8040140:	10a9df04 	addi	r2,r2,-22660
 8040144:	e0fffd17 	ldw	r3,-12(fp)
 8040148:	180690fa 	slli	r3,r3,3
 804014c:	10c5883a 	add	r2,r2,r3
 8040150:	10c00017 	ldw	r3,0(r2)
 8040154:	00810074 	movhi	r2,1025
 8040158:	10a9df04 	addi	r2,r2,-22660
 804015c:	e13ffd17 	ldw	r4,-12(fp)
 8040160:	200890fa 	slli	r4,r4,3
 8040164:	1105883a 	add	r2,r2,r4
 8040168:	10800104 	addi	r2,r2,4
 804016c:	10800017 	ldw	r2,0(r2)
 8040170:	e17ffd17 	ldw	r5,-12(fp)
 8040174:	1009883a 	mov	r4,r2
 8040178:	183ee83a 	callr	r3
#endif
        break;
 804017c:	0001883a 	nop
#ifndef NIOS2_EIC_PRESENT
static ALT_INLINE alt_u32 ALT_ALWAYS_INLINE alt_irq_pending (void)
{
  alt_u32 active;

  NIOS2_READ_IPENDING (active);
 8040180:	0005313a 	rdctl	r2,ipending
 8040184:	e0bfff15 	stw	r2,-4(fp)

  return active;
 8040188:	e0bfff17 	ldw	r2,-4(fp)
 804018c:	00000706 	br	80401ac <alt_irq_handler+0xb0>
      }
      mask <<= 1;
 8040190:	e0bffc17 	ldw	r2,-16(fp)
 8040194:	1085883a 	add	r2,r2,r2
 8040198:	e0bffc15 	stw	r2,-16(fp)
      i++;
 804019c:	e0bffd17 	ldw	r2,-12(fp)
 80401a0:	10800044 	addi	r2,r2,1
 80401a4:	e0bffd15 	stw	r2,-12(fp)

    } while (1);
 80401a8:	003fe006 	br	804012c <__ram_exceptions_end+0xfffffee4>

    active = alt_irq_pending ();
 80401ac:	e0bffb15 	stw	r2,-20(fp)
    
  } while (active);
 80401b0:	e0bffb17 	ldw	r2,-20(fp)
 80401b4:	103fda1e 	bne	r2,zero,8040120 <__ram_exceptions_end+0xfffffed8>

  /*
   * Notify the operating system that interrupt processing is complete.
   */ 

  ALT_OS_INT_EXIT();
 80401b8:	0001883a 	nop
}
 80401bc:	0001883a 	nop
 80401c0:	e037883a 	mov	sp,fp
 80401c4:	dfc00117 	ldw	ra,4(sp)
 80401c8:	df000017 	ldw	fp,0(sp)
 80401cc:	dec00204 	addi	sp,sp,8
 80401d0:	f800283a 	ret

080401d4 <alt_instruction_exception_entry>:
 * that handler if it has been registered. Absent a handler, it will
 * break break or hang as discussed below.
 */
int 
alt_instruction_exception_entry (alt_u32 exception_pc)
{
 80401d4:	defffb04 	addi	sp,sp,-20
 80401d8:	dfc00415 	stw	ra,16(sp)
 80401dc:	df000315 	stw	fp,12(sp)
 80401e0:	df000304 	addi	fp,sp,12
 80401e4:	e13fff15 	stw	r4,-4(fp)
 * NIOS2_EXCEPTION_CAUSE_NOT_PRESENT. Your handling routine should
 * check the validity of the cause argument before proceeding.
 */
#ifdef NIOS2_HAS_EXTRA_EXCEPTION_INFO
  /* Get exception cause & "badaddr" */
  NIOS2_READ_EXCEPTION(cause);
 80401e8:	000531fa 	rdctl	r2,exception
 80401ec:	e0bffd15 	stw	r2,-12(fp)
  cause = ( (cause & NIOS2_EXCEPTION_REG_CAUSE_MASK) >>
 80401f0:	e0bffd17 	ldw	r2,-12(fp)
 80401f4:	10801f0c 	andi	r2,r2,124
 80401f8:	1004d0ba 	srli	r2,r2,2
 80401fc:	e0bffd15 	stw	r2,-12(fp)
              NIOS2_EXCEPTION_REG_CAUSE_OFST );

  NIOS2_READ_BADADDR(badaddr);
 8040200:	0005333a 	rdctl	r2,badaddr
 8040204:	e0bffe15 	stw	r2,-8(fp)
#else
  cause = NIOS2_EXCEPTION_CAUSE_NOT_PRESENT;
  badaddr = 0;
#endif /* NIOS2_HAS_EXTRA_EXCEPTION_INFO */

  if(alt_instruction_exception_handler) {
 8040208:	d0a10717 	ldw	r2,-31716(gp)
 804020c:	10000726 	beq	r2,zero,804022c <alt_instruction_exception_entry+0x58>
     * Call handler. Its return value indicates whether the exception-causing
     * instruction should be re-issued. The code that called us,
     * alt_eceptions_entry.S, will look at this value and adjust the ea
     * register as necessary
     */
    return alt_instruction_exception_handler(cause, exception_pc, badaddr);
 8040210:	d0a10717 	ldw	r2,-31716(gp)
 8040214:	e0fffd17 	ldw	r3,-12(fp)
 8040218:	e1bffe17 	ldw	r6,-8(fp)
 804021c:	e17fff17 	ldw	r5,-4(fp)
 8040220:	1809883a 	mov	r4,r3
 8040224:	103ee83a 	callr	r2
 8040228:	00000206 	br	8040234 <alt_instruction_exception_entry+0x60>
   *    (a peripheral which negates its interrupt output before its
   *    interrupt handler has been executed will cause spurious interrupts)
   */
  else {
#ifdef NIOS2_HAS_DEBUG_STUB
    NIOS2_BREAK();
 804022c:	003da03a 	break	0
      ;
#endif /* NIOS2_HAS_DEBUG_STUB */
  }

  /* We should not get here. Remove compiler warning. */
  return NIOS2_EXCEPTION_RETURN_REISSUE_INST;
 8040230:	0005883a 	mov	r2,zero
}
 8040234:	e037883a 	mov	sp,fp
 8040238:	dfc00117 	ldw	ra,4(sp)
 804023c:	df000017 	ldw	fp,0(sp)
 8040240:	dec00204 	addi	sp,sp,8
 8040244:	f800283a 	ret

Disassembly of section .text:

04000228 <_start>:

    /* Assume the data cache size is always a power of two. */
#if NIOS2_DCACHE_SIZE > 0x8000
    movhi r2, %hi(NIOS2_DCACHE_SIZE)
#else
    movui r2, NIOS2_DCACHE_SIZE
 4000228:	00820014 	movui	r2,2048
#endif

0:
    initd 0(r2)
 400022c:	10000033 	initd	0(r2)
#ifdef NIOS2_ECC_PRESENT
    addi r2, r2, -4
#else
    addi r2, r2, -NIOS2_DCACHE_LINE_SIZE
 4000230:	10bff804 	addi	r2,r2,-32
#endif
    bgt r2, zero, 0b
 4000234:	00bffd16 	blt	zero,r2,400022c <__ram_exceptions_end+0xfbfbffe4>

    /*
     * Now that the caches are initialized, set up the stack pointer and global pointer.
     * The values provided by the linker are assumed to be correctly aligned.
     */
    movhi sp, %hi(__alt_stack_pointer)
 4000238:	06c20034 	movhi	sp,2048
    ori sp, sp, %lo(__alt_stack_pointer)
 400023c:	dec00014 	ori	sp,sp,0
    movhi gp, %hi(_gp)
 4000240:	06810074 	movhi	gp,1025
    ori gp, gp, %lo(_gp)
 4000244:	d688d714 	ori	gp,gp,9052
 */
#ifndef ALT_SIM_OPTIMIZE
    /* Log that the BSS is about to be cleared. */
    ALT_LOG_PUTS(alt_log_msg_bss)

    movhi r2, %hi(__bss_start)
 4000248:	00810034 	movhi	r2,1024
    ori r2, r2, %lo(__bss_start)
 400024c:	10a9d314 	ori	r2,r2,42828

    movhi r3, %hi(__bss_end)
 4000250:	00c10034 	movhi	r3,1024
    ori r3, r3, %lo(__bss_end)
 4000254:	18ea1f14 	ori	r3,r3,43132

    beq r2, r3, 1f
 4000258:	10c00326 	beq	r2,r3,4000268 <_start+0x40>

0:
    stw zero, (r2)
 400025c:	10000015 	stw	zero,0(r2)
    addi r2, r2, 4
 4000260:	10800104 	addi	r2,r2,4
    bltu r2, r3, 0b
 4000264:	10fffd36 	bltu	r2,r3,400025c <__ram_exceptions_end+0xfbfc0014>
     * section aren't defined until alt_load() has been called).
     */
    mov   et, zero
#endif

    call alt_load
 4000268:	4006f640 	call	4006f64 <alt_load>

    /* Log that alt_main is about to be called. */
    ALT_LOG_PUTS(alt_log_msg_alt_main)

    /* Call the C entry point. It should never return. */
    call alt_main
 400026c:	4006fe80 	call	4006fe8 <alt_main>

04000270 <alt_after_alt_main>:

    /* Wait in infinite loop in case alt_main does return. */
alt_after_alt_main:
    br alt_after_alt_main
 4000270:	003fff06 	br	4000270 <__ram_exceptions_end+0xfbfc0028>

04000274 <main>:
int tRainbow = 0;

// timer flag to sync frames
volatile int timeoutFlag = 0;

int main(){
 4000274:	defff704 	addi	sp,sp,-36
 4000278:	dfc00815 	stw	ra,32(sp)
 400027c:	df000715 	stw	fp,28(sp)
 4000280:	dc000615 	stw	r16,24(sp)
 4000284:	df000704 	addi	fp,sp,28
	printf("entered main");
 4000288:	01010074 	movhi	r4,1025
 400028c:	21270d04 	addi	r4,r4,-25548
 4000290:	40066580 	call	4006658 <printf>

	// create pointer to pixel buffer
	alt_up_pixel_buffer_dma_dev* pixel_buffer;
	pixel_buffer = alt_up_pixel_buffer_dma_open_dev("/dev/video_pixel_buffer_dma_0");
 4000294:	01010074 	movhi	r4,1025
 4000298:	21271104 	addi	r4,r4,-25532
 400029c:	4007c2c0 	call	4007c2c <alt_up_pixel_buffer_dma_open_dev>
 40002a0:	e0bffc15 	stw	r2,-16(fp)

	// create pointer to accelerometer
	alt_up_accelerometer_spi_dev* accel;
	accel = alt_up_accelerometer_spi_open_dev("/dev/accelerometer_spi_0");
 40002a4:	01010074 	movhi	r4,1025
 40002a8:	21271904 	addi	r4,r4,-25500
 40002ac:	400787c0 	call	400787c <alt_up_accelerometer_spi_open_dev>
 40002b0:	e0bffd15 	stw	r2,-12(fp)

	// initialize timer settings
	IOWR_ALTERA_AVALON_TIMER_CONTROL(TIMER_0_BASE, 0x7);
 40002b4:	00c001c4 	movi	r3,7
 40002b8:	00820234 	movhi	r2,2056
 40002bc:	10840104 	addi	r2,r2,4100
 40002c0:	10c00035 	stwio	r3,0(r2)
	//IOWR_ALTERA_AVALON_TIMER_CONTROL(TIMER_0_BASE, (1 << ALTERA_AVALON_TIMER_CONTROL_ITO_OFST) & ~ALTERA_AVALON_TIMER_CONTROL_ITO_MSK);
	// start timer
	//IOWR_ALTERA_AVALON_TIMER_CONTROL(TIMER_0_BASE, (1 << ALTERA_AVALON_TIMER_CONTROL_START_OFST) & ~ALTERA_AVALON_TIMER_CONTROL_START_MSK);

	// initialize timer IRQ
	void* timeoutFlag_ptr = (void*) &timeoutFlag;
 40002c4:	d0a0ff04 	addi	r2,gp,-31748
 40002c8:	e0bffe15 	stw	r2,-8(fp)
	alt_irq_register(
 40002cc:	01810034 	movhi	r6,1024
 40002d0:	3183c704 	addi	r6,r6,3868
 40002d4:	e17ffe17 	ldw	r5,-8(fp)
 40002d8:	01000044 	movi	r4,1
 40002dc:	4006d7c0 	call	4006d7c <alt_irq_register>
	//	0x00
	);

	// initial screen clear
//	alt_up_pixel_buffer_dma_clear_screen(pixel_buffer,0);
	usleep(200000);
 40002e0:	010000f4 	movhi	r4,3
 40002e4:	21035004 	addi	r4,r4,3392
 40002e8:	40070640 	call	4007064 <usleep>

	while(1){
	if(timeoutFlag == 1){
 40002ec:	d0a0ff17 	ldw	r2,-31748(gp)
 40002f0:	10800058 	cmpnei	r2,r2,1
 40002f4:	103ffd1e 	bne	r2,zero,40002ec <__ram_exceptions_end+0xfbfc00a4>
		// calculate color to draw
		colorToDraw = colorCalc();
 40002f8:	40005900 	call	4000590 <colorCalc>
 40002fc:	d0a0fc15 	stw	r2,-31760(gp)

		// KEY1 allows quick erasing without changing SW
		if(IORD(PIO_PUSH_BASE,0) == 0b01){
 4000300:	00820234 	movhi	r2,2056
 4000304:	10841004 	addi	r2,r2,4160
 4000308:	10800037 	ldwio	r2,0(r2)
 400030c:	10800058 	cmpnei	r2,r2,1
 4000310:	1000411e 	bne	r2,zero,4000418 <main+0x1a4>
			// calculate next cursor position
			cursorMove(accel);
 4000314:	e13ffd17 	ldw	r4,-12(fp)
 4000318:	4000bc00 	call	4000bc0 <cursorMove>

			// move on-screen cursor if position has changed
			if((roundf(xFloat) != x) || (roundf(yFloat) != y)){
 400031c:	d0a00217 	ldw	r2,-32760(gp)
 4000320:	1009883a 	mov	r4,r2
 4000324:	40011540 	call	4001154 <roundf>
 4000328:	1021883a 	mov	r16,r2
 400032c:	d0a00017 	ldw	r2,-32768(gp)
 4000330:	1009883a 	mov	r4,r2
 4000334:	40048040 	call	4004804 <__floatsisf>
 4000338:	1007883a 	mov	r3,r2
 400033c:	180b883a 	mov	r5,r3
 4000340:	8009883a 	mov	r4,r16
 4000344:	4003cb80 	call	4003cb8 <__eqsf2>
 4000348:	10000c1e 	bne	r2,zero,400037c <main+0x108>
 400034c:	d0a00317 	ldw	r2,-32756(gp)
 4000350:	1009883a 	mov	r4,r2
 4000354:	40011540 	call	4001154 <roundf>
 4000358:	1021883a 	mov	r16,r2
 400035c:	d0a00117 	ldw	r2,-32764(gp)
 4000360:	1009883a 	mov	r4,r2
 4000364:	40048040 	call	4004804 <__floatsisf>
 4000368:	1007883a 	mov	r3,r2
 400036c:	180b883a 	mov	r5,r3
 4000370:	8009883a 	mov	r4,r16
 4000374:	4003cb80 	call	4003cb8 <__eqsf2>
 4000378:	10002726 	beq	r2,zero,4000418 <main+0x1a4>
				// fill previous position with black; erase
				alt_up_pixel_buffer_dma_draw_box(pixel_buffer,x,y,x,y,0x0000,0);
 400037c:	d0e00017 	ldw	r3,-32768(gp)
 4000380:	d1200117 	ldw	r4,-32764(gp)
 4000384:	d1600017 	ldw	r5,-32768(gp)
 4000388:	d0a00117 	ldw	r2,-32764(gp)
 400038c:	d8000215 	stw	zero,8(sp)
 4000390:	d8000115 	stw	zero,4(sp)
 4000394:	d8800015 	stw	r2,0(sp)
 4000398:	280f883a 	mov	r7,r5
 400039c:	200d883a 	mov	r6,r4
 40003a0:	180b883a 	mov	r5,r3
 40003a4:	e13ffc17 	ldw	r4,-16(fp)
 40003a8:	40080140 	call	4008014 <alt_up_pixel_buffer_dma_draw_box>

				// adjust grid coords to follow floating coords
				x = roundf(xFloat);
 40003ac:	d0a00217 	ldw	r2,-32760(gp)
 40003b0:	1009883a 	mov	r4,r2
 40003b4:	40011540 	call	4001154 <roundf>
 40003b8:	1007883a 	mov	r3,r2
 40003bc:	1809883a 	mov	r4,r3
 40003c0:	40047940 	call	4004794 <__fixsfsi>
 40003c4:	d0a00015 	stw	r2,-32768(gp)
				y = roundf(yFloat);
 40003c8:	d0a00317 	ldw	r2,-32756(gp)
 40003cc:	1009883a 	mov	r4,r2
 40003d0:	40011540 	call	4001154 <roundf>
 40003d4:	1007883a 	mov	r3,r2
 40003d8:	1809883a 	mov	r4,r3
 40003dc:	40047940 	call	4004794 <__fixsfsi>
 40003e0:	d0a00115 	stw	r2,-32764(gp)

				// redraw cursor
				alt_up_pixel_buffer_dma_draw_box(pixel_buffer,x,y,x,y,0xFFFF,0);
 40003e4:	d1200017 	ldw	r4,-32768(gp)
 40003e8:	d1600117 	ldw	r5,-32764(gp)
 40003ec:	d1a00017 	ldw	r6,-32768(gp)
 40003f0:	d0a00117 	ldw	r2,-32764(gp)
 40003f4:	d8000215 	stw	zero,8(sp)
 40003f8:	00ffffd4 	movui	r3,65535
 40003fc:	d8c00115 	stw	r3,4(sp)
 4000400:	d8800015 	stw	r2,0(sp)
 4000404:	300f883a 	mov	r7,r6
 4000408:	280d883a 	mov	r6,r5
 400040c:	200b883a 	mov	r5,r4
 4000410:	e13ffc17 	ldw	r4,-16(fp)
 4000414:	40080140 	call	4008014 <alt_up_pixel_buffer_dma_draw_box>
			}
		}

		// KEY0 allows drawing calculated color
		if(IORD(PIO_PUSH_BASE,0) == 0b10){
 4000418:	00820234 	movhi	r2,2056
 400041c:	10841004 	addi	r2,r2,4160
 4000420:	10800037 	ldwio	r2,0(r2)
 4000424:	10800098 	cmpnei	r2,r2,2
 4000428:	1000441e 	bne	r2,zero,400053c <main+0x2c8>
			// calculate next cursor position
			cursorMove(accel);
 400042c:	e13ffd17 	ldw	r4,-12(fp)
 4000430:	4000bc00 	call	4000bc0 <cursorMove>

			// move on-screen cursor if position has changed
			if((roundf(xFloat) != x) || (roundf(yFloat) != y)){
 4000434:	d0a00217 	ldw	r2,-32760(gp)
 4000438:	1009883a 	mov	r4,r2
 400043c:	40011540 	call	4001154 <roundf>
 4000440:	1021883a 	mov	r16,r2
 4000444:	d0a00017 	ldw	r2,-32768(gp)
 4000448:	1009883a 	mov	r4,r2
 400044c:	40048040 	call	4004804 <__floatsisf>
 4000450:	1007883a 	mov	r3,r2
 4000454:	180b883a 	mov	r5,r3
 4000458:	8009883a 	mov	r4,r16
 400045c:	4003cb80 	call	4003cb8 <__eqsf2>
 4000460:	10000c1e 	bne	r2,zero,4000494 <main+0x220>
 4000464:	d0a00317 	ldw	r2,-32756(gp)
 4000468:	1009883a 	mov	r4,r2
 400046c:	40011540 	call	4001154 <roundf>
 4000470:	1021883a 	mov	r16,r2
 4000474:	d0a00117 	ldw	r2,-32764(gp)
 4000478:	1009883a 	mov	r4,r2
 400047c:	40048040 	call	4004804 <__floatsisf>
 4000480:	1007883a 	mov	r3,r2
 4000484:	180b883a 	mov	r5,r3
 4000488:	8009883a 	mov	r4,r16
 400048c:	4003cb80 	call	4003cb8 <__eqsf2>
 4000490:	10002a26 	beq	r2,zero,400053c <main+0x2c8>
				// fill previous position with color to be drawn
				alt_up_pixel_buffer_dma_draw_box(pixel_buffer,x,y,x,y,colorToDraw,0);
 4000494:	d1200017 	ldw	r4,-32768(gp)
 4000498:	d1600117 	ldw	r5,-32764(gp)
 400049c:	d1a00017 	ldw	r6,-32768(gp)
 40004a0:	d0a00117 	ldw	r2,-32764(gp)
 40004a4:	d0e0fc17 	ldw	r3,-31760(gp)
 40004a8:	d8000215 	stw	zero,8(sp)
 40004ac:	d8c00115 	stw	r3,4(sp)
 40004b0:	d8800015 	stw	r2,0(sp)
 40004b4:	300f883a 	mov	r7,r6
 40004b8:	280d883a 	mov	r6,r5
 40004bc:	200b883a 	mov	r5,r4
 40004c0:	e13ffc17 	ldw	r4,-16(fp)
 40004c4:	40080140 	call	4008014 <alt_up_pixel_buffer_dma_draw_box>

				// adjust grid coords to follow floating coords
				x = roundf(xFloat);
 40004c8:	d0a00217 	ldw	r2,-32760(gp)
 40004cc:	1009883a 	mov	r4,r2
 40004d0:	40011540 	call	4001154 <roundf>
 40004d4:	1007883a 	mov	r3,r2
 40004d8:	1809883a 	mov	r4,r3
 40004dc:	40047940 	call	4004794 <__fixsfsi>
 40004e0:	d0a00015 	stw	r2,-32768(gp)
				y = roundf(yFloat);
 40004e4:	d0a00317 	ldw	r2,-32756(gp)
 40004e8:	1009883a 	mov	r4,r2
 40004ec:	40011540 	call	4001154 <roundf>
 40004f0:	1007883a 	mov	r3,r2
 40004f4:	1809883a 	mov	r4,r3
 40004f8:	40047940 	call	4004794 <__fixsfsi>
 40004fc:	d0a00115 	stw	r2,-32764(gp)

				// redraw cursor
				alt_up_pixel_buffer_dma_draw_box(pixel_buffer,x,y,x,y,0xFFFF,0);
 4000500:	d1200017 	ldw	r4,-32768(gp)
 4000504:	d1600117 	ldw	r5,-32764(gp)
 4000508:	d1a00017 	ldw	r6,-32768(gp)
 400050c:	d0a00117 	ldw	r2,-32764(gp)
 4000510:	d8000215 	stw	zero,8(sp)
 4000514:	00ffffd4 	movui	r3,65535
 4000518:	d8c00115 	stw	r3,4(sp)
 400051c:	d8800015 	stw	r2,0(sp)
 4000520:	300f883a 	mov	r7,r6
 4000524:	280d883a 	mov	r6,r5
 4000528:	200b883a 	mov	r5,r4
 400052c:	e13ffc17 	ldw	r4,-16(fp)
 4000530:	40080140 	call	4008014 <alt_up_pixel_buffer_dma_draw_box>

				// set rainbow flag
				rainbowFlag = 1;
 4000534:	00800044 	movi	r2,1
 4000538:	d0a0fd15 	stw	r2,-31756(gp)
			}
		}

		// both KEYs simultaneously clears screen after holding for 2 sec
		if(IORD(PIO_PUSH_BASE,0) == 0b00){
 400053c:	00820234 	movhi	r2,2056
 4000540:	10841004 	addi	r2,r2,4160
 4000544:	10800037 	ldwio	r2,0(r2)
 4000548:	10000f1e 	bne	r2,zero,4000588 <main+0x314>
			usleep(2000000);
 400054c:	010007f4 	movhi	r4,31
 4000550:	21212004 	addi	r4,r4,-31616
 4000554:	40070640 	call	4007064 <usleep>
			if(IORD(PIO_PUSH_BASE,0) == 0b00){
 4000558:	00820234 	movhi	r2,2056
 400055c:	10841004 	addi	r2,r2,4160
 4000560:	10800037 	ldwio	r2,0(r2)
 4000564:	1000081e 	bne	r2,zero,4000588 <main+0x314>
				alt_up_pixel_buffer_dma_clear_screen(pixel_buffer,1);
 4000568:	01400044 	movi	r5,1
 400056c:	e13ffc17 	ldw	r4,-16(fp)
 4000570:	4007eec0 	call	4007eec <alt_up_pixel_buffer_dma_clear_screen>
				alt_up_pixel_buffer_dma_swap_buffers(pixel_buffer);
 4000574:	e13ffc17 	ldw	r4,-16(fp)
 4000578:	4007e580 	call	4007e58 <alt_up_pixel_buffer_dma_swap_buffers>
				usleep(200000);
 400057c:	010000f4 	movhi	r4,3
 4000580:	21035004 	addi	r4,r4,3392
 4000584:	40070640 	call	4007064 <usleep>
			}
		}

		timeoutFlag = 0;
 4000588:	d020ff15 	stw	zero,-31748(gp)
		// limit drawing/actions to monitor framerate
		//usleep(33333);
	}
	}
 400058c:	003f5706 	br	40002ec <__ram_exceptions_end+0xfbfc00a4>

04000590 <colorCalc>:

//////////////////////////////////////
// Calculates the next color to be drawn on the screen
//  - Displays next color to be drawn on the screen in hex using SSDs
//  - Handles rainbow color calculations
int colorCalc(){
 4000590:	defff504 	addi	sp,sp,-44
 4000594:	dfc00a15 	stw	ra,40(sp)
 4000598:	df000915 	stw	fp,36(sp)
 400059c:	dc400815 	stw	r17,32(sp)
 40005a0:	dc000715 	stw	r16,28(sp)
 40005a4:	df000904 	addi	fp,sp,36
	// input color variables w/ assignment based on SW0-8
	int redIn =   (((IORD(PIO_SW_BASE,0) & 0x100) >> 8)* 128) +
 40005a8:	00820234 	movhi	r2,2056
 40005ac:	10840c04 	addi	r2,r2,4144
 40005b0:	10800037 	ldwio	r2,0(r2)
 40005b4:	1080400c 	andi	r2,r2,256
 40005b8:	1005d23a 	srai	r2,r2,8
 40005bc:	100691fa 	slli	r3,r2,7
			    (((IORD(PIO_SW_BASE,0) & 0x080) >> 7)* 85) +
 40005c0:	00820234 	movhi	r2,2056
 40005c4:	10840c04 	addi	r2,r2,4144
 40005c8:	10800037 	ldwio	r2,0(r2)
 40005cc:	1080200c 	andi	r2,r2,128
 40005d0:	1005d1fa 	srai	r2,r2,7
 40005d4:	10801564 	muli	r2,r2,85
// Calculates the next color to be drawn on the screen
//  - Displays next color to be drawn on the screen in hex using SSDs
//  - Handles rainbow color calculations
int colorCalc(){
	// input color variables w/ assignment based on SW0-8
	int redIn =   (((IORD(PIO_SW_BASE,0) & 0x100) >> 8)* 128) +
 40005d8:	1887883a 	add	r3,r3,r2
			    (((IORD(PIO_SW_BASE,0) & 0x080) >> 7)* 85) +
			    (((IORD(PIO_SW_BASE,0) & 0x040) >> 6)* 42);
 40005dc:	00820234 	movhi	r2,2056
 40005e0:	10840c04 	addi	r2,r2,4144
 40005e4:	10800037 	ldwio	r2,0(r2)
 40005e8:	1080100c 	andi	r2,r2,64
 40005ec:	1005d1ba 	srai	r2,r2,6
 40005f0:	10800aa4 	muli	r2,r2,42
// Calculates the next color to be drawn on the screen
//  - Displays next color to be drawn on the screen in hex using SSDs
//  - Handles rainbow color calculations
int colorCalc(){
	// input color variables w/ assignment based on SW0-8
	int redIn =   (((IORD(PIO_SW_BASE,0) & 0x100) >> 8)* 128) +
 40005f4:	1885883a 	add	r2,r3,r2
 40005f8:	e0bffb15 	stw	r2,-20(fp)
			    (((IORD(PIO_SW_BASE,0) & 0x080) >> 7)* 85) +
			    (((IORD(PIO_SW_BASE,0) & 0x040) >> 6)* 42);
	int greenIn = (((IORD(PIO_SW_BASE,0) & 0x020) >> 5)* 128) +
 40005fc:	00820234 	movhi	r2,2056
 4000600:	10840c04 	addi	r2,r2,4144
 4000604:	10800037 	ldwio	r2,0(r2)
 4000608:	1080080c 	andi	r2,r2,32
 400060c:	1005d17a 	srai	r2,r2,5
 4000610:	100691fa 	slli	r3,r2,7
		        (((IORD(PIO_SW_BASE,0) & 0x010) >> 4)* 85) +
 4000614:	00820234 	movhi	r2,2056
 4000618:	10840c04 	addi	r2,r2,4144
 400061c:	10800037 	ldwio	r2,0(r2)
 4000620:	1080040c 	andi	r2,r2,16
 4000624:	1005d13a 	srai	r2,r2,4
 4000628:	10801564 	muli	r2,r2,85
int colorCalc(){
	// input color variables w/ assignment based on SW0-8
	int redIn =   (((IORD(PIO_SW_BASE,0) & 0x100) >> 8)* 128) +
			    (((IORD(PIO_SW_BASE,0) & 0x080) >> 7)* 85) +
			    (((IORD(PIO_SW_BASE,0) & 0x040) >> 6)* 42);
	int greenIn = (((IORD(PIO_SW_BASE,0) & 0x020) >> 5)* 128) +
 400062c:	1887883a 	add	r3,r3,r2
		        (((IORD(PIO_SW_BASE,0) & 0x010) >> 4)* 85) +
				(((IORD(PIO_SW_BASE,0) & 0x008) >> 3)* 42);
 4000630:	00820234 	movhi	r2,2056
 4000634:	10840c04 	addi	r2,r2,4144
 4000638:	10800037 	ldwio	r2,0(r2)
 400063c:	1080020c 	andi	r2,r2,8
 4000640:	1005d0fa 	srai	r2,r2,3
 4000644:	10800aa4 	muli	r2,r2,42
int colorCalc(){
	// input color variables w/ assignment based on SW0-8
	int redIn =   (((IORD(PIO_SW_BASE,0) & 0x100) >> 8)* 128) +
			    (((IORD(PIO_SW_BASE,0) & 0x080) >> 7)* 85) +
			    (((IORD(PIO_SW_BASE,0) & 0x040) >> 6)* 42);
	int greenIn = (((IORD(PIO_SW_BASE,0) & 0x020) >> 5)* 128) +
 4000648:	1885883a 	add	r2,r3,r2
 400064c:	e0bffc15 	stw	r2,-16(fp)
		        (((IORD(PIO_SW_BASE,0) & 0x010) >> 4)* 85) +
				(((IORD(PIO_SW_BASE,0) & 0x008) >> 3)* 42);
	int blueIn =  (((IORD(PIO_SW_BASE,0) & 0x004) >> 2)* 128) +
 4000650:	00820234 	movhi	r2,2056
 4000654:	10840c04 	addi	r2,r2,4144
 4000658:	10800037 	ldwio	r2,0(r2)
 400065c:	1080010c 	andi	r2,r2,4
 4000660:	1005d0ba 	srai	r2,r2,2
 4000664:	100691fa 	slli	r3,r2,7
		        (((IORD(PIO_SW_BASE,0) & 0x002) >> 1)* 85) +
 4000668:	00820234 	movhi	r2,2056
 400066c:	10840c04 	addi	r2,r2,4144
 4000670:	10800037 	ldwio	r2,0(r2)
 4000674:	1080008c 	andi	r2,r2,2
 4000678:	1005d07a 	srai	r2,r2,1
 400067c:	10801564 	muli	r2,r2,85
			    (((IORD(PIO_SW_BASE,0) & 0x080) >> 7)* 85) +
			    (((IORD(PIO_SW_BASE,0) & 0x040) >> 6)* 42);
	int greenIn = (((IORD(PIO_SW_BASE,0) & 0x020) >> 5)* 128) +
		        (((IORD(PIO_SW_BASE,0) & 0x010) >> 4)* 85) +
				(((IORD(PIO_SW_BASE,0) & 0x008) >> 3)* 42);
	int blueIn =  (((IORD(PIO_SW_BASE,0) & 0x004) >> 2)* 128) +
 4000680:	1887883a 	add	r3,r3,r2
		        (((IORD(PIO_SW_BASE,0) & 0x002) >> 1)* 85) +
			    (((IORD(PIO_SW_BASE,0) & 0x001)     )* 42);
 4000684:	00820234 	movhi	r2,2056
 4000688:	10840c04 	addi	r2,r2,4144
 400068c:	10800037 	ldwio	r2,0(r2)
 4000690:	1080004c 	andi	r2,r2,1
 4000694:	10800aa4 	muli	r2,r2,42
			    (((IORD(PIO_SW_BASE,0) & 0x080) >> 7)* 85) +
			    (((IORD(PIO_SW_BASE,0) & 0x040) >> 6)* 42);
	int greenIn = (((IORD(PIO_SW_BASE,0) & 0x020) >> 5)* 128) +
		        (((IORD(PIO_SW_BASE,0) & 0x010) >> 4)* 85) +
				(((IORD(PIO_SW_BASE,0) & 0x008) >> 3)* 42);
	int blueIn =  (((IORD(PIO_SW_BASE,0) & 0x004) >> 2)* 128) +
 4000698:	1885883a 	add	r2,r3,r2
 400069c:	e0bffd15 	stw	r2,-12(fp)
	int red;
	int green;
	int blue;

	// rainbow color calculation
	if((IORD(PIO_SW_BASE,0) & 0x200) > 0){
 40006a0:	00820234 	movhi	r2,2056
 40006a4:	10840c04 	addi	r2,r2,4144
 40006a8:	10800037 	ldwio	r2,0(r2)
 40006ac:	1080800c 	andi	r2,r2,512
 40006b0:	0081040e 	bge	zero,r2,4000ac4 <colorCalc+0x534>
		// additionally check for position change to avoid skipping colors
		if(rainbowFlag == 1){
 40006b4:	d0a0fd17 	ldw	r2,-31756(gp)
 40006b8:	10800058 	cmpnei	r2,r2,1
 40006bc:	1001111e 	bne	r2,zero,4000b04 <colorCalc+0x574>
			red =   round(sin(0.105*tRainbow)         * ((float)redIn/2) + ((float)redIn/2));
 40006c0:	d0a0fe17 	ldw	r2,-31752(gp)
 40006c4:	1009883a 	mov	r4,r2
 40006c8:	40063cc0 	call	40063cc <__floatsidf>
 40006cc:	1011883a 	mov	r8,r2
 40006d0:	1813883a 	mov	r9,r3
 40006d4:	01ab8534 	movhi	r6,44564
 40006d8:	319eb844 	addi	r6,r6,31457
 40006dc:	01cfeef4 	movhi	r7,16315
 40006e0:	39f851c4 	addi	r7,r7,-7865
 40006e4:	4009883a 	mov	r4,r8
 40006e8:	480b883a 	mov	r5,r9
 40006ec:	40053380 	call	4005338 <__muldf3>
 40006f0:	1009883a 	mov	r4,r2
 40006f4:	180b883a 	mov	r5,r3
 40006f8:	2005883a 	mov	r2,r4
 40006fc:	2807883a 	mov	r3,r5
 4000700:	1009883a 	mov	r4,r2
 4000704:	180b883a 	mov	r5,r3
 4000708:	40010640 	call	4001064 <sin>
 400070c:	1021883a 	mov	r16,r2
 4000710:	1823883a 	mov	r17,r3
 4000714:	e13ffb17 	ldw	r4,-20(fp)
 4000718:	40048040 	call	4004804 <__floatsisf>
 400071c:	1007883a 	mov	r3,r2
 4000720:	01500034 	movhi	r5,16384
 4000724:	1809883a 	mov	r4,r3
 4000728:	40038780 	call	4003878 <__divsf3>
 400072c:	1007883a 	mov	r3,r2
 4000730:	1805883a 	mov	r2,r3
 4000734:	1009883a 	mov	r4,r2
 4000738:	40064a80 	call	40064a8 <__extendsfdf2>
 400073c:	1009883a 	mov	r4,r2
 4000740:	180b883a 	mov	r5,r3
 4000744:	200d883a 	mov	r6,r4
 4000748:	280f883a 	mov	r7,r5
 400074c:	8009883a 	mov	r4,r16
 4000750:	880b883a 	mov	r5,r17
 4000754:	40053380 	call	4005338 <__muldf3>
 4000758:	1009883a 	mov	r4,r2
 400075c:	180b883a 	mov	r5,r3
 4000760:	2021883a 	mov	r16,r4
 4000764:	2823883a 	mov	r17,r5
 4000768:	e13ffb17 	ldw	r4,-20(fp)
 400076c:	40048040 	call	4004804 <__floatsisf>
 4000770:	1007883a 	mov	r3,r2
 4000774:	01500034 	movhi	r5,16384
 4000778:	1809883a 	mov	r4,r3
 400077c:	40038780 	call	4003878 <__divsf3>
 4000780:	1007883a 	mov	r3,r2
 4000784:	1805883a 	mov	r2,r3
 4000788:	1009883a 	mov	r4,r2
 400078c:	40064a80 	call	40064a8 <__extendsfdf2>
 4000790:	1009883a 	mov	r4,r2
 4000794:	180b883a 	mov	r5,r3
 4000798:	200d883a 	mov	r6,r4
 400079c:	280f883a 	mov	r7,r5
 40007a0:	8009883a 	mov	r4,r16
 40007a4:	880b883a 	mov	r5,r17
 40007a8:	40049280 	call	4004928 <__adddf3>
 40007ac:	1009883a 	mov	r4,r2
 40007b0:	180b883a 	mov	r5,r3
 40007b4:	2005883a 	mov	r2,r4
 40007b8:	2807883a 	mov	r3,r5
 40007bc:	1009883a 	mov	r4,r2
 40007c0:	180b883a 	mov	r5,r3
 40007c4:	4000f640 	call	4000f64 <round>
 40007c8:	100b883a 	mov	r5,r2
 40007cc:	180d883a 	mov	r6,r3
 40007d0:	2809883a 	mov	r4,r5
 40007d4:	300b883a 	mov	r5,r6
 40007d8:	400634c0 	call	400634c <__fixdfsi>
 40007dc:	e0bff815 	stw	r2,-32(fp)
			green = round(sin(0.105*tRainbow + 2.094) * ((float)greenIn/2) + ((float)greenIn/2));
 40007e0:	d0a0fe17 	ldw	r2,-31752(gp)
 40007e4:	1009883a 	mov	r4,r2
 40007e8:	40063cc0 	call	40063cc <__floatsidf>
 40007ec:	1011883a 	mov	r8,r2
 40007f0:	1813883a 	mov	r9,r3
 40007f4:	01ab8534 	movhi	r6,44564
 40007f8:	319eb844 	addi	r6,r6,31457
 40007fc:	01cfeef4 	movhi	r7,16315
 4000800:	39f851c4 	addi	r7,r7,-7865
 4000804:	4009883a 	mov	r4,r8
 4000808:	480b883a 	mov	r5,r9
 400080c:	40053380 	call	4005338 <__muldf3>
 4000810:	1009883a 	mov	r4,r2
 4000814:	180b883a 	mov	r5,r3
 4000818:	2005883a 	mov	r2,r4
 400081c:	2807883a 	mov	r3,r5
 4000820:	01849bf4 	movhi	r6,4719
 4000824:	31a5e344 	addi	r6,r6,-26739
 4000828:	01d00074 	movhi	r7,16385
 400082c:	39f020c4 	addi	r7,r7,-16253
 4000830:	1009883a 	mov	r4,r2
 4000834:	180b883a 	mov	r5,r3
 4000838:	40049280 	call	4004928 <__adddf3>
 400083c:	1009883a 	mov	r4,r2
 4000840:	180b883a 	mov	r5,r3
 4000844:	2005883a 	mov	r2,r4
 4000848:	2807883a 	mov	r3,r5
 400084c:	1009883a 	mov	r4,r2
 4000850:	180b883a 	mov	r5,r3
 4000854:	40010640 	call	4001064 <sin>
 4000858:	1021883a 	mov	r16,r2
 400085c:	1823883a 	mov	r17,r3
 4000860:	e13ffc17 	ldw	r4,-16(fp)
 4000864:	40048040 	call	4004804 <__floatsisf>
 4000868:	1007883a 	mov	r3,r2
 400086c:	01500034 	movhi	r5,16384
 4000870:	1809883a 	mov	r4,r3
 4000874:	40038780 	call	4003878 <__divsf3>
 4000878:	1007883a 	mov	r3,r2
 400087c:	1805883a 	mov	r2,r3
 4000880:	1009883a 	mov	r4,r2
 4000884:	40064a80 	call	40064a8 <__extendsfdf2>
 4000888:	1009883a 	mov	r4,r2
 400088c:	180b883a 	mov	r5,r3
 4000890:	200d883a 	mov	r6,r4
 4000894:	280f883a 	mov	r7,r5
 4000898:	8009883a 	mov	r4,r16
 400089c:	880b883a 	mov	r5,r17
 40008a0:	40053380 	call	4005338 <__muldf3>
 40008a4:	1009883a 	mov	r4,r2
 40008a8:	180b883a 	mov	r5,r3
 40008ac:	2021883a 	mov	r16,r4
 40008b0:	2823883a 	mov	r17,r5
 40008b4:	e13ffc17 	ldw	r4,-16(fp)
 40008b8:	40048040 	call	4004804 <__floatsisf>
 40008bc:	1007883a 	mov	r3,r2
 40008c0:	01500034 	movhi	r5,16384
 40008c4:	1809883a 	mov	r4,r3
 40008c8:	40038780 	call	4003878 <__divsf3>
 40008cc:	1007883a 	mov	r3,r2
 40008d0:	1805883a 	mov	r2,r3
 40008d4:	1009883a 	mov	r4,r2
 40008d8:	40064a80 	call	40064a8 <__extendsfdf2>
 40008dc:	1009883a 	mov	r4,r2
 40008e0:	180b883a 	mov	r5,r3
 40008e4:	200d883a 	mov	r6,r4
 40008e8:	280f883a 	mov	r7,r5
 40008ec:	8009883a 	mov	r4,r16
 40008f0:	880b883a 	mov	r5,r17
 40008f4:	40049280 	call	4004928 <__adddf3>
 40008f8:	1009883a 	mov	r4,r2
 40008fc:	180b883a 	mov	r5,r3
 4000900:	2005883a 	mov	r2,r4
 4000904:	2807883a 	mov	r3,r5
 4000908:	1009883a 	mov	r4,r2
 400090c:	180b883a 	mov	r5,r3
 4000910:	4000f640 	call	4000f64 <round>
 4000914:	100b883a 	mov	r5,r2
 4000918:	180d883a 	mov	r6,r3
 400091c:	2809883a 	mov	r4,r5
 4000920:	300b883a 	mov	r5,r6
 4000924:	400634c0 	call	400634c <__fixdfsi>
 4000928:	e0bff915 	stw	r2,-28(fp)
			blue =  round(sin(0.105*tRainbow + 4.188) * ((float)blueIn/2) + ((float)blueIn/2));
 400092c:	d0a0fe17 	ldw	r2,-31752(gp)
 4000930:	1009883a 	mov	r4,r2
 4000934:	40063cc0 	call	40063cc <__floatsidf>
 4000938:	1011883a 	mov	r8,r2
 400093c:	1813883a 	mov	r9,r3
 4000940:	01ab8534 	movhi	r6,44564
 4000944:	319eb844 	addi	r6,r6,31457
 4000948:	01cfeef4 	movhi	r7,16315
 400094c:	39f851c4 	addi	r7,r7,-7865
 4000950:	4009883a 	mov	r4,r8
 4000954:	480b883a 	mov	r5,r9
 4000958:	40053380 	call	4005338 <__muldf3>
 400095c:	1009883a 	mov	r4,r2
 4000960:	180b883a 	mov	r5,r3
 4000964:	2005883a 	mov	r2,r4
 4000968:	2807883a 	mov	r3,r5
 400096c:	01849bf4 	movhi	r6,4719
 4000970:	31a5e344 	addi	r6,r6,-26739
 4000974:	01d00474 	movhi	r7,16401
 4000978:	39f020c4 	addi	r7,r7,-16253
 400097c:	1009883a 	mov	r4,r2
 4000980:	180b883a 	mov	r5,r3
 4000984:	40049280 	call	4004928 <__adddf3>
 4000988:	1009883a 	mov	r4,r2
 400098c:	180b883a 	mov	r5,r3
 4000990:	2005883a 	mov	r2,r4
 4000994:	2807883a 	mov	r3,r5
 4000998:	1009883a 	mov	r4,r2
 400099c:	180b883a 	mov	r5,r3
 40009a0:	40010640 	call	4001064 <sin>
 40009a4:	1021883a 	mov	r16,r2
 40009a8:	1823883a 	mov	r17,r3
 40009ac:	e13ffd17 	ldw	r4,-12(fp)
 40009b0:	40048040 	call	4004804 <__floatsisf>
 40009b4:	1007883a 	mov	r3,r2
 40009b8:	01500034 	movhi	r5,16384
 40009bc:	1809883a 	mov	r4,r3
 40009c0:	40038780 	call	4003878 <__divsf3>
 40009c4:	1007883a 	mov	r3,r2
 40009c8:	1805883a 	mov	r2,r3
 40009cc:	1009883a 	mov	r4,r2
 40009d0:	40064a80 	call	40064a8 <__extendsfdf2>
 40009d4:	1009883a 	mov	r4,r2
 40009d8:	180b883a 	mov	r5,r3
 40009dc:	200d883a 	mov	r6,r4
 40009e0:	280f883a 	mov	r7,r5
 40009e4:	8009883a 	mov	r4,r16
 40009e8:	880b883a 	mov	r5,r17
 40009ec:	40053380 	call	4005338 <__muldf3>
 40009f0:	1009883a 	mov	r4,r2
 40009f4:	180b883a 	mov	r5,r3
 40009f8:	2021883a 	mov	r16,r4
 40009fc:	2823883a 	mov	r17,r5
 4000a00:	e13ffd17 	ldw	r4,-12(fp)
 4000a04:	40048040 	call	4004804 <__floatsisf>
 4000a08:	1007883a 	mov	r3,r2
 4000a0c:	01500034 	movhi	r5,16384
 4000a10:	1809883a 	mov	r4,r3
 4000a14:	40038780 	call	4003878 <__divsf3>
 4000a18:	1007883a 	mov	r3,r2
 4000a1c:	1805883a 	mov	r2,r3
 4000a20:	1009883a 	mov	r4,r2
 4000a24:	40064a80 	call	40064a8 <__extendsfdf2>
 4000a28:	1009883a 	mov	r4,r2
 4000a2c:	180b883a 	mov	r5,r3
 4000a30:	200d883a 	mov	r6,r4
 4000a34:	280f883a 	mov	r7,r5
 4000a38:	8009883a 	mov	r4,r16
 4000a3c:	880b883a 	mov	r5,r17
 4000a40:	40049280 	call	4004928 <__adddf3>
 4000a44:	1009883a 	mov	r4,r2
 4000a48:	180b883a 	mov	r5,r3
 4000a4c:	2005883a 	mov	r2,r4
 4000a50:	2807883a 	mov	r3,r5
 4000a54:	1009883a 	mov	r4,r2
 4000a58:	180b883a 	mov	r5,r3
 4000a5c:	4000f640 	call	4000f64 <round>
 4000a60:	100b883a 	mov	r5,r2
 4000a64:	180d883a 	mov	r6,r3
 4000a68:	2809883a 	mov	r4,r5
 4000a6c:	300b883a 	mov	r5,r6
 4000a70:	400634c0 	call	400634c <__fixdfsi>
 4000a74:	e0bffa15 	stw	r2,-24(fp)

			// increment and bind rainbow position
			// restricts tRainbow to a single period
			tRainbow++;
 4000a78:	d0a0fe17 	ldw	r2,-31752(gp)
 4000a7c:	10800044 	addi	r2,r2,1
 4000a80:	d0a0fe15 	stw	r2,-31752(gp)
			if(tRainbow >= 60)
 4000a84:	d0a0fe17 	ldw	r2,-31752(gp)
 4000a88:	10800f10 	cmplti	r2,r2,60
 4000a8c:	1000011e 	bne	r2,zero,4000a94 <colorCalc+0x504>
				tRainbow = 0;
 4000a90:	d020fe15 	stw	zero,-31752(gp)

			// send hex color codes to SSDs every rainbow calculation
			IOWR(PIO_HEX_BASE, 0, ((red << 16) + (green << 8) + blue));
 4000a94:	e0bff817 	ldw	r2,-32(fp)
 4000a98:	1006943a 	slli	r3,r2,16
 4000a9c:	e0bff917 	ldw	r2,-28(fp)
 4000aa0:	1004923a 	slli	r2,r2,8
 4000aa4:	1887883a 	add	r3,r3,r2
 4000aa8:	e0bffa17 	ldw	r2,-24(fp)
 4000aac:	1887883a 	add	r3,r3,r2
 4000ab0:	00820234 	movhi	r2,2056
 4000ab4:	10840804 	addi	r2,r2,4128
 4000ab8:	10c00035 	stwio	r3,0(r2)

			// reset rainbow flag
			rainbowFlag = 0;
 4000abc:	d020fd15 	stw	zero,-31756(gp)
 4000ac0:	00001006 	br	4000b04 <colorCalc+0x574>
	}


	else{
		// direct assignment without rainbow mode
		red = redIn;
 4000ac4:	e0bffb17 	ldw	r2,-20(fp)
 4000ac8:	e0bff815 	stw	r2,-32(fp)
		green = greenIn;
 4000acc:	e0bffc17 	ldw	r2,-16(fp)
 4000ad0:	e0bff915 	stw	r2,-28(fp)
		blue = blueIn;
 4000ad4:	e0bffd17 	ldw	r2,-12(fp)
 4000ad8:	e0bffa15 	stw	r2,-24(fp)

		// send hex color codes to SSDs every frame if not in rainbow mode
		IOWR(PIO_HEX_BASE, 0, ((red << 16) + (green << 8) + blue));
 4000adc:	e0bff817 	ldw	r2,-32(fp)
 4000ae0:	1006943a 	slli	r3,r2,16
 4000ae4:	e0bff917 	ldw	r2,-28(fp)
 4000ae8:	1004923a 	slli	r2,r2,8
 4000aec:	1887883a 	add	r3,r3,r2
 4000af0:	e0bffa17 	ldw	r2,-24(fp)
 4000af4:	1887883a 	add	r3,r3,r2
 4000af8:	00820234 	movhi	r2,2056
 4000afc:	10840804 	addi	r2,r2,4128
 4000b00:	10c00035 	stwio	r3,0(r2)
	}

	// map/convert hex color codes to 16 bit
	// red to 5 bits
	red = mapi(red,0,255,0,0x1F);
 4000b04:	e13ff817 	ldw	r4,-32(fp)
 4000b08:	40048040 	call	4004804 <__floatsisf>
 4000b0c:	1007883a 	mov	r3,r2
 4000b10:	00907e34 	movhi	r2,16888
 4000b14:	d8800015 	stw	r2,0(sp)
 4000b18:	000f883a 	mov	r7,zero
 4000b1c:	0190dff4 	movhi	r6,17279
 4000b20:	000b883a 	mov	r5,zero
 4000b24:	1809883a 	mov	r4,r3
 4000b28:	4000d2c0 	call	4000d2c <mapi>
 4000b2c:	e0bff815 	stw	r2,-32(fp)
	// green to 6 bits
	green = mapi(green,0,255,0,0x3F);
 4000b30:	e13ff917 	ldw	r4,-28(fp)
 4000b34:	40048040 	call	4004804 <__floatsisf>
 4000b38:	1007883a 	mov	r3,r2
 4000b3c:	00909f34 	movhi	r2,17020
 4000b40:	d8800015 	stw	r2,0(sp)
 4000b44:	000f883a 	mov	r7,zero
 4000b48:	0190dff4 	movhi	r6,17279
 4000b4c:	000b883a 	mov	r5,zero
 4000b50:	1809883a 	mov	r4,r3
 4000b54:	4000d2c0 	call	4000d2c <mapi>
 4000b58:	e0bff915 	stw	r2,-28(fp)
	// blue to 5 bits
	blue = mapi(blue,0,255,0,0x1F);
 4000b5c:	e13ffa17 	ldw	r4,-24(fp)
 4000b60:	40048040 	call	4004804 <__floatsisf>
 4000b64:	1007883a 	mov	r3,r2
 4000b68:	00907e34 	movhi	r2,16888
 4000b6c:	d8800015 	stw	r2,0(sp)
 4000b70:	000f883a 	mov	r7,zero
 4000b74:	0190dff4 	movhi	r6,17279
 4000b78:	000b883a 	mov	r5,zero
 4000b7c:	1809883a 	mov	r4,r3
 4000b80:	4000d2c0 	call	4000d2c <mapi>
 4000b84:	e0bffa15 	stw	r2,-24(fp)

	// return final color
	return (red << 11) + (green << 5) + blue;
 4000b88:	e0bff817 	ldw	r2,-32(fp)
 4000b8c:	100692fa 	slli	r3,r2,11
 4000b90:	e0bff917 	ldw	r2,-28(fp)
 4000b94:	1004917a 	slli	r2,r2,5
 4000b98:	1887883a 	add	r3,r3,r2
 4000b9c:	e0bffa17 	ldw	r2,-24(fp)
 4000ba0:	1885883a 	add	r2,r3,r2
}
 4000ba4:	e6fffe04 	addi	sp,fp,-8
 4000ba8:	dfc00317 	ldw	ra,12(sp)
 4000bac:	df000217 	ldw	fp,8(sp)
 4000bb0:	dc400117 	ldw	r17,4(sp)
 4000bb4:	dc000017 	ldw	r16,0(sp)
 4000bb8:	dec00404 	addi	sp,sp,16
 4000bbc:	f800283a 	ret

04000bc0 <cursorMove>:

//////////////////////////////////////////////
// Moves the cursor independent of drawing colors
void cursorMove(alt_up_accelerometer_spi_dev* accel_p){
 4000bc0:	defffa04 	addi	sp,sp,-24
 4000bc4:	dfc00515 	stw	ra,20(sp)
 4000bc8:	df000415 	stw	fp,16(sp)
 4000bcc:	df000404 	addi	fp,sp,16
 4000bd0:	e13fff15 	stw	r4,-4(fp)
	// capture accelerometer input
	int xAccel;
	int yAccel;
	alt_up_accelerometer_spi_read_x_axis(accel_p, &xAccel);
 4000bd4:	e17ffd04 	addi	r5,fp,-12
 4000bd8:	e13fff17 	ldw	r4,-4(fp)
 4000bdc:	40079c80 	call	40079c8 <alt_up_accelerometer_spi_read_x_axis>
	alt_up_accelerometer_spi_read_y_axis(accel_p, &yAccel);
 4000be0:	e0bffe04 	addi	r2,fp,-8
 4000be4:	100b883a 	mov	r5,r2
 4000be8:	e13fff17 	ldw	r4,-4(fp)
 4000bec:	4007a940 	call	4007a94 <alt_up_accelerometer_spi_read_y_axis>

	// change floating coords based on accelerometer input
	// max movement speed is 0.5 px/frame = 30 px/s
	xFloat -= mapf(xAccel,-256,256,-0.5,0.5);
 4000bf0:	e0bffd17 	ldw	r2,-12(fp)
 4000bf4:	1009883a 	mov	r4,r2
 4000bf8:	40048040 	call	4004804 <__floatsisf>
 4000bfc:	1007883a 	mov	r3,r2
 4000c00:	008fc034 	movhi	r2,16128
 4000c04:	d8800015 	stw	r2,0(sp)
 4000c08:	01efc034 	movhi	r7,48896
 4000c0c:	0190e034 	movhi	r6,17280
 4000c10:	0170e034 	movhi	r5,50048
 4000c14:	1809883a 	mov	r4,r3
 4000c18:	4000e280 	call	4000e28 <mapf>
 4000c1c:	1007883a 	mov	r3,r2
 4000c20:	d0a00217 	ldw	r2,-32760(gp)
 4000c24:	180b883a 	mov	r5,r3
 4000c28:	1009883a 	mov	r4,r2
 4000c2c:	40042b00 	call	40042b0 <__subsf3>
 4000c30:	1007883a 	mov	r3,r2
 4000c34:	1805883a 	mov	r2,r3
 4000c38:	d0a00215 	stw	r2,-32760(gp)

	yFloat += mapf(yAccel,-256,256,-0.5,0.5);
 4000c3c:	e0bffe17 	ldw	r2,-8(fp)
 4000c40:	1009883a 	mov	r4,r2
 4000c44:	40048040 	call	4004804 <__floatsisf>
 4000c48:	1007883a 	mov	r3,r2
 4000c4c:	008fc034 	movhi	r2,16128
 4000c50:	d8800015 	stw	r2,0(sp)
 4000c54:	01efc034 	movhi	r7,48896
 4000c58:	0190e034 	movhi	r6,17280
 4000c5c:	0170e034 	movhi	r5,50048
 4000c60:	1809883a 	mov	r4,r3
 4000c64:	4000e280 	call	4000e28 <mapf>
 4000c68:	1007883a 	mov	r3,r2
 4000c6c:	d0a00317 	ldw	r2,-32756(gp)
 4000c70:	100b883a 	mov	r5,r2
 4000c74:	1809883a 	mov	r4,r3
 4000c78:	40033b00 	call	40033b0 <__addsf3>
 4000c7c:	1007883a 	mov	r3,r2
 4000c80:	1805883a 	mov	r2,r3
 4000c84:	d0a00315 	stw	r2,-32756(gp)



	// set floating coord boundaries
	if(xFloat <= -0.5)
 4000c88:	d0a00217 	ldw	r2,-32760(gp)
 4000c8c:	016fc034 	movhi	r5,48896
 4000c90:	1009883a 	mov	r4,r2
 4000c94:	4003dec0 	call	4003dec <__lesf2>
 4000c98:	00800316 	blt	zero,r2,4000ca8 <cursorMove+0xe8>
		xFloat = -0.49;
 4000c9c:	00afbef4 	movhi	r2,48891
 4000ca0:	10b85204 	addi	r2,r2,-7864
 4000ca4:	d0a00215 	stw	r2,-32760(gp)
	if(xFloat >= 319.5)
 4000ca8:	d0a00217 	ldw	r2,-32760(gp)
 4000cac:	0150e834 	movhi	r5,17312
 4000cb0:	29700004 	addi	r5,r5,-16384
 4000cb4:	1009883a 	mov	r4,r2
 4000cb8:	4003d300 	call	4003d30 <__gesf2>
 4000cbc:	10000316 	blt	r2,zero,4000ccc <cursorMove+0x10c>
		xFloat = 319.49;
 4000cc0:	0090e834 	movhi	r2,17312
 4000cc4:	10afae04 	addi	r2,r2,-16712
 4000cc8:	d0a00215 	stw	r2,-32760(gp)

	if(yFloat <= -0.5)
 4000ccc:	d0a00317 	ldw	r2,-32756(gp)
 4000cd0:	016fc034 	movhi	r5,48896
 4000cd4:	1009883a 	mov	r4,r2
 4000cd8:	4003dec0 	call	4003dec <__lesf2>
 4000cdc:	00800316 	blt	zero,r2,4000cec <cursorMove+0x12c>
		yFloat = -0.49;
 4000ce0:	00afbef4 	movhi	r2,48891
 4000ce4:	10b85204 	addi	r2,r2,-7864
 4000ce8:	d0a00315 	stw	r2,-32756(gp)
	if(yFloat >= 239.5)
 4000cec:	d0a00317 	ldw	r2,-32756(gp)
 4000cf0:	0150dc34 	movhi	r5,17264
 4000cf4:	29600004 	addi	r5,r5,-32768
 4000cf8:	1009883a 	mov	r4,r2
 4000cfc:	4003d300 	call	4003d30 <__gesf2>
 4000d00:	1000010e 	bge	r2,zero,4000d08 <cursorMove+0x148>
		yFloat = 239.49;
}
 4000d04:	00000306 	br	4000d14 <cursorMove+0x154>
		xFloat = 319.49;

	if(yFloat <= -0.5)
		yFloat = -0.49;
	if(yFloat >= 239.5)
		yFloat = 239.49;
 4000d08:	0090dbf4 	movhi	r2,17263
 4000d0c:	109f5c44 	addi	r2,r2,32113
 4000d10:	d0a00315 	stw	r2,-32756(gp)
}
 4000d14:	0001883a 	nop
 4000d18:	e037883a 	mov	sp,fp
 4000d1c:	dfc00117 	ldw	ra,4(sp)
 4000d20:	df000017 	ldw	fp,0(sp)
 4000d24:	dec00204 	addi	sp,sp,8
 4000d28:	f800283a 	ret

04000d2c <mapi>:

/////////////////////////////////////////////
// Maps a number to an integer range
int mapi(float input, float inMin, float inMax, float outMin, float outMax){
 4000d2c:	defff804 	addi	sp,sp,-32
 4000d30:	dfc00715 	stw	ra,28(sp)
 4000d34:	df000615 	stw	fp,24(sp)
 4000d38:	dc000515 	stw	r16,20(sp)
 4000d3c:	df000604 	addi	fp,sp,24
 4000d40:	e13ffb15 	stw	r4,-20(fp)
 4000d44:	e17ffc15 	stw	r5,-16(fp)
 4000d48:	e1bffd15 	stw	r6,-12(fp)
 4000d4c:	e1fffe15 	stw	r7,-8(fp)
	// bind input
	if(input < inMin)
 4000d50:	e17ffc17 	ldw	r5,-16(fp)
 4000d54:	e13ffb17 	ldw	r4,-20(fp)
 4000d58:	4003dec0 	call	4003dec <__lesf2>
 4000d5c:	1000030e 	bge	r2,zero,4000d6c <mapi+0x40>
		input = inMin;
 4000d60:	e0bffc17 	ldw	r2,-16(fp)
 4000d64:	e0bffb15 	stw	r2,-20(fp)
 4000d68:	00000606 	br	4000d84 <mapi+0x58>
	else if(input > inMax)
 4000d6c:	e17ffd17 	ldw	r5,-12(fp)
 4000d70:	e13ffb17 	ldw	r4,-20(fp)
 4000d74:	4003d300 	call	4003d30 <__gesf2>
 4000d78:	0080020e 	bge	zero,r2,4000d84 <mapi+0x58>
		input = inMax;
 4000d7c:	e0bffd17 	ldw	r2,-12(fp)
 4000d80:	e0bffb15 	stw	r2,-20(fp)

	// mapping function
	float mapped = outMin + ((outMax - outMin) / (inMax - inMin)) * (input - inMin);
 4000d84:	e17ffe17 	ldw	r5,-8(fp)
 4000d88:	e1000217 	ldw	r4,8(fp)
 4000d8c:	40042b00 	call	40042b0 <__subsf3>
 4000d90:	1007883a 	mov	r3,r2
 4000d94:	1821883a 	mov	r16,r3
 4000d98:	e17ffc17 	ldw	r5,-16(fp)
 4000d9c:	e13ffd17 	ldw	r4,-12(fp)
 4000da0:	40042b00 	call	40042b0 <__subsf3>
 4000da4:	1007883a 	mov	r3,r2
 4000da8:	1805883a 	mov	r2,r3
 4000dac:	100b883a 	mov	r5,r2
 4000db0:	8009883a 	mov	r4,r16
 4000db4:	40038780 	call	4003878 <__divsf3>
 4000db8:	1007883a 	mov	r3,r2
 4000dbc:	1821883a 	mov	r16,r3
 4000dc0:	e17ffc17 	ldw	r5,-16(fp)
 4000dc4:	e13ffb17 	ldw	r4,-20(fp)
 4000dc8:	40042b00 	call	40042b0 <__subsf3>
 4000dcc:	1007883a 	mov	r3,r2
 4000dd0:	1805883a 	mov	r2,r3
 4000dd4:	100b883a 	mov	r5,r2
 4000dd8:	8009883a 	mov	r4,r16
 4000ddc:	4003eb40 	call	4003eb4 <__mulsf3>
 4000de0:	1007883a 	mov	r3,r2
 4000de4:	1805883a 	mov	r2,r3
 4000de8:	e17ffe17 	ldw	r5,-8(fp)
 4000dec:	1009883a 	mov	r4,r2
 4000df0:	40033b00 	call	40033b0 <__addsf3>
 4000df4:	1007883a 	mov	r3,r2
 4000df8:	e0fffa15 	stw	r3,-24(fp)

	// return rounded int
	return (int) roundf(mapped);
 4000dfc:	e13ffa17 	ldw	r4,-24(fp)
 4000e00:	40011540 	call	4001154 <roundf>
 4000e04:	1007883a 	mov	r3,r2
 4000e08:	1809883a 	mov	r4,r3
 4000e0c:	40047940 	call	4004794 <__fixsfsi>
}
 4000e10:	e6ffff04 	addi	sp,fp,-4
 4000e14:	dfc00217 	ldw	ra,8(sp)
 4000e18:	df000117 	ldw	fp,4(sp)
 4000e1c:	dc000017 	ldw	r16,0(sp)
 4000e20:	dec00304 	addi	sp,sp,12
 4000e24:	f800283a 	ret

04000e28 <mapf>:

/////////////////////////////////////////////
// Maps a number to a floating point number range
float mapf(float input, float inMin, float inMax, float outMin, float outMax){
 4000e28:	defff804 	addi	sp,sp,-32
 4000e2c:	dfc00715 	stw	ra,28(sp)
 4000e30:	df000615 	stw	fp,24(sp)
 4000e34:	dc000515 	stw	r16,20(sp)
 4000e38:	df000604 	addi	fp,sp,24
 4000e3c:	e13ffb15 	stw	r4,-20(fp)
 4000e40:	e17ffc15 	stw	r5,-16(fp)
 4000e44:	e1bffd15 	stw	r6,-12(fp)
 4000e48:	e1fffe15 	stw	r7,-8(fp)
	// bind input
	if(input < inMin)
 4000e4c:	e17ffc17 	ldw	r5,-16(fp)
 4000e50:	e13ffb17 	ldw	r4,-20(fp)
 4000e54:	4003dec0 	call	4003dec <__lesf2>
 4000e58:	1000030e 	bge	r2,zero,4000e68 <mapf+0x40>
		input = inMin;
 4000e5c:	e0bffc17 	ldw	r2,-16(fp)
 4000e60:	e0bffb15 	stw	r2,-20(fp)
 4000e64:	00000606 	br	4000e80 <mapf+0x58>
	else if(input > inMax)
 4000e68:	e17ffd17 	ldw	r5,-12(fp)
 4000e6c:	e13ffb17 	ldw	r4,-20(fp)
 4000e70:	4003d300 	call	4003d30 <__gesf2>
 4000e74:	0080020e 	bge	zero,r2,4000e80 <mapf+0x58>
		input = inMax;
 4000e78:	e0bffd17 	ldw	r2,-12(fp)
 4000e7c:	e0bffb15 	stw	r2,-20(fp)

	// mapping function
	float mapped = outMin + ((outMax - outMin) / (inMax - inMin)) * (input - inMin);
 4000e80:	e17ffe17 	ldw	r5,-8(fp)
 4000e84:	e1000217 	ldw	r4,8(fp)
 4000e88:	40042b00 	call	40042b0 <__subsf3>
 4000e8c:	1007883a 	mov	r3,r2
 4000e90:	1821883a 	mov	r16,r3
 4000e94:	e17ffc17 	ldw	r5,-16(fp)
 4000e98:	e13ffd17 	ldw	r4,-12(fp)
 4000e9c:	40042b00 	call	40042b0 <__subsf3>
 4000ea0:	1007883a 	mov	r3,r2
 4000ea4:	1805883a 	mov	r2,r3
 4000ea8:	100b883a 	mov	r5,r2
 4000eac:	8009883a 	mov	r4,r16
 4000eb0:	40038780 	call	4003878 <__divsf3>
 4000eb4:	1007883a 	mov	r3,r2
 4000eb8:	1821883a 	mov	r16,r3
 4000ebc:	e17ffc17 	ldw	r5,-16(fp)
 4000ec0:	e13ffb17 	ldw	r4,-20(fp)
 4000ec4:	40042b00 	call	40042b0 <__subsf3>
 4000ec8:	1007883a 	mov	r3,r2
 4000ecc:	1805883a 	mov	r2,r3
 4000ed0:	100b883a 	mov	r5,r2
 4000ed4:	8009883a 	mov	r4,r16
 4000ed8:	4003eb40 	call	4003eb4 <__mulsf3>
 4000edc:	1007883a 	mov	r3,r2
 4000ee0:	1805883a 	mov	r2,r3
 4000ee4:	e17ffe17 	ldw	r5,-8(fp)
 4000ee8:	1009883a 	mov	r4,r2
 4000eec:	40033b00 	call	40033b0 <__addsf3>
 4000ef0:	1007883a 	mov	r3,r2
 4000ef4:	e0fffa15 	stw	r3,-24(fp)

	// return float
	return mapped;
 4000ef8:	e0bffa17 	ldw	r2,-24(fp)
 4000efc:	1007883a 	mov	r3,r2
}
 4000f00:	1805883a 	mov	r2,r3
 4000f04:	e6ffff04 	addi	sp,fp,-4
 4000f08:	dfc00217 	ldw	ra,8(sp)
 4000f0c:	df000117 	ldw	fp,4(sp)
 4000f10:	dc000017 	ldw	r16,0(sp)
 4000f14:	dec00304 	addi	sp,sp,12
 4000f18:	f800283a 	ret

04000f1c <timer_0_isr>:

void timer_0_isr(void* context){
 4000f1c:	defffd04 	addi	sp,sp,-12
 4000f20:	df000215 	stw	fp,8(sp)
 4000f24:	df000204 	addi	fp,sp,8
 4000f28:	e13fff15 	stw	r4,-4(fp)
	// set flag
	volatile int* timeoutFlag_ptr = (volatile int*) context;
 4000f2c:	e0bfff17 	ldw	r2,-4(fp)
 4000f30:	e0bffe15 	stw	r2,-8(fp)
	*timeoutFlag_ptr = 1;
 4000f34:	e0bffe17 	ldw	r2,-8(fp)
 4000f38:	00c00044 	movi	r3,1
 4000f3c:	10c00015 	stw	r3,0(r2)

	// clear interrupt
	IOWR_ALTERA_AVALON_TIMER_STATUS(TIMER_0_BASE, 0);
 4000f40:	0007883a 	mov	r3,zero
 4000f44:	00820234 	movhi	r2,2056
 4000f48:	10840004 	addi	r2,r2,4096
 4000f4c:	10c00035 	stwio	r3,0(r2)
}
 4000f50:	0001883a 	nop
 4000f54:	e037883a 	mov	sp,fp
 4000f58:	df000017 	ldw	fp,0(sp)
 4000f5c:	dec00104 	addi	sp,sp,4
 4000f60:	f800283a 	ret

04000f64 <round>:
 4000f64:	289ffc2c 	andhi	r2,r5,32752
 4000f68:	1005d53a 	srai	r2,r2,20
 4000f6c:	024004c4 	movi	r9,19
 4000f70:	2807883a 	mov	r3,r5
 4000f74:	123f0044 	addi	r8,r2,-1023
 4000f78:	200d883a 	mov	r6,r4
 4000f7c:	280f883a 	mov	r7,r5
 4000f80:	4a000916 	blt	r9,r8,4000fa8 <round+0x44>
 4000f84:	40002516 	blt	r8,zero,400101c <round+0xb8>
 4000f88:	00800434 	movhi	r2,16
 4000f8c:	10bfffc4 	addi	r2,r2,-1
 4000f90:	1205d83a 	sra	r2,r2,r8
 4000f94:	2888703a 	and	r4,r5,r2
 4000f98:	2000181e 	bne	r4,zero,4000ffc <round+0x98>
 4000f9c:	3000171e 	bne	r6,zero,4000ffc <round+0x98>
 4000fa0:	0005883a 	mov	r2,zero
 4000fa4:	f800283a 	ret
 4000fa8:	02400cc4 	movi	r9,51
 4000fac:	4a00040e 	bge	r9,r8,4000fc0 <round+0x5c>
 4000fb0:	00810004 	movi	r2,1024
 4000fb4:	40802126 	beq	r8,r2,400103c <round+0xd8>
 4000fb8:	3005883a 	mov	r2,r6
 4000fbc:	f800283a 	ret
 4000fc0:	013fffc4 	movi	r4,-1
 4000fc4:	10befb44 	addi	r2,r2,-1043
 4000fc8:	2084d83a 	srl	r2,r4,r2
 4000fcc:	3088703a 	and	r4,r6,r2
 4000fd0:	20001726 	beq	r4,zero,4001030 <round+0xcc>
 4000fd4:	4a11c83a 	sub	r8,r9,r8
 4000fd8:	02400044 	movi	r9,1
 4000fdc:	4a10983a 	sll	r8,r9,r8
 4000fe0:	4191883a 	add	r8,r8,r6
 4000fe4:	4180012e 	bgeu	r8,r6,4000fec <round+0x88>
 4000fe8:	2a47883a 	add	r3,r5,r9
 4000fec:	0084303a 	nor	r2,zero,r2
 4000ff0:	120c703a 	and	r6,r2,r8
 4000ff4:	3005883a 	mov	r2,r6
 4000ff8:	f800283a 	ret
 4000ffc:	00c00234 	movhi	r3,8
 4001000:	1a07d83a 	sra	r3,r3,r8
 4001004:	0084303a 	nor	r2,zero,r2
 4001008:	000d883a 	mov	r6,zero
 400100c:	19c7883a 	add	r3,r3,r7
 4001010:	1886703a 	and	r3,r3,r2
 4001014:	3005883a 	mov	r2,r6
 4001018:	f800283a 	ret
 400101c:	00bfffc4 	movi	r2,-1
 4001020:	28e0002c 	andhi	r3,r5,32768
 4001024:	40800c26 	beq	r8,r2,4001058 <round+0xf4>
 4001028:	000d883a 	mov	r6,zero
 400102c:	003fe206 	br	4000fb8 <__ram_exceptions_end+0xfbfc0d70>
 4001030:	3005883a 	mov	r2,r6
 4001034:	2807883a 	mov	r3,r5
 4001038:	f800283a 	ret
 400103c:	deffff04 	addi	sp,sp,-4
 4001040:	280f883a 	mov	r7,r5
 4001044:	dfc00015 	stw	ra,0(sp)
 4001048:	40049280 	call	4004928 <__adddf3>
 400104c:	dfc00017 	ldw	ra,0(sp)
 4001050:	dec00104 	addi	sp,sp,4
 4001054:	f800283a 	ret
 4001058:	18cffc34 	orhi	r3,r3,16368
 400105c:	000d883a 	mov	r6,zero
 4001060:	003fd506 	br	4000fb8 <__ram_exceptions_end+0xfbfc0d70>

04001064 <sin>:
 4001064:	00a00034 	movhi	r2,32768
 4001068:	defffa04 	addi	sp,sp,-24
 400106c:	10bfffc4 	addi	r2,r2,-1
 4001070:	00cffa74 	movhi	r3,16361
 4001074:	dfc00515 	stw	ra,20(sp)
 4001078:	2884703a 	and	r2,r5,r2
 400107c:	18c87ec4 	addi	r3,r3,8699
 4001080:	1880180e 	bge	r3,r2,40010e4 <sin+0x80>
 4001084:	00dffc34 	movhi	r3,32752
 4001088:	18ffffc4 	addi	r3,r3,-1
 400108c:	1880060e 	bge	r3,r2,40010a8 <sin+0x44>
 4001090:	280f883a 	mov	r7,r5
 4001094:	200d883a 	mov	r6,r4
 4001098:	4005a500 	call	4005a50 <__subdf3>
 400109c:	dfc00517 	ldw	ra,20(sp)
 40010a0:	dec00604 	addi	sp,sp,24
 40010a4:	f800283a 	ret
 40010a8:	d9800104 	addi	r6,sp,4
 40010ac:	40011d80 	call	40011d8 <__ieee754_rem_pio2>
 40010b0:	108000cc 	andi	r2,r2,3
 40010b4:	00c00044 	movi	r3,1
 40010b8:	10c01926 	beq	r2,r3,4001120 <sin+0xbc>
 40010bc:	01000084 	movi	r4,2
 40010c0:	11000f26 	beq	r2,r4,4001100 <sin+0x9c>
 40010c4:	10001c26 	beq	r2,zero,4001138 <sin+0xd4>
 40010c8:	d9800317 	ldw	r6,12(sp)
 40010cc:	d9c00417 	ldw	r7,16(sp)
 40010d0:	d9000117 	ldw	r4,4(sp)
 40010d4:	d9400217 	ldw	r5,8(sp)
 40010d8:	40019440 	call	4001944 <__kernel_cos>
 40010dc:	18e0003c 	xorhi	r3,r3,32768
 40010e0:	003fee06 	br	400109c <__ram_exceptions_end+0xfbfc0e54>
 40010e4:	d8000015 	stw	zero,0(sp)
 40010e8:	000d883a 	mov	r6,zero
 40010ec:	000f883a 	mov	r7,zero
 40010f0:	4002b780 	call	4002b78 <__kernel_sin>
 40010f4:	dfc00517 	ldw	ra,20(sp)
 40010f8:	dec00604 	addi	sp,sp,24
 40010fc:	f800283a 	ret
 4001100:	d9800317 	ldw	r6,12(sp)
 4001104:	d9c00417 	ldw	r7,16(sp)
 4001108:	d9000117 	ldw	r4,4(sp)
 400110c:	d9400217 	ldw	r5,8(sp)
 4001110:	d8c00015 	stw	r3,0(sp)
 4001114:	4002b780 	call	4002b78 <__kernel_sin>
 4001118:	18e0003c 	xorhi	r3,r3,32768
 400111c:	003fdf06 	br	400109c <__ram_exceptions_end+0xfbfc0e54>
 4001120:	d9800317 	ldw	r6,12(sp)
 4001124:	d9c00417 	ldw	r7,16(sp)
 4001128:	d9000117 	ldw	r4,4(sp)
 400112c:	d9400217 	ldw	r5,8(sp)
 4001130:	40019440 	call	4001944 <__kernel_cos>
 4001134:	003fd906 	br	400109c <__ram_exceptions_end+0xfbfc0e54>
 4001138:	d9800317 	ldw	r6,12(sp)
 400113c:	d9c00417 	ldw	r7,16(sp)
 4001140:	d9000117 	ldw	r4,4(sp)
 4001144:	d9400217 	ldw	r5,8(sp)
 4001148:	d8c00015 	stw	r3,0(sp)
 400114c:	4002b780 	call	4002b78 <__kernel_sin>
 4001150:	003fd206 	br	400109c <__ram_exceptions_end+0xfbfc0e54>

04001154 <roundf>:
 4001154:	20dfe02c 	andhi	r3,r4,32640
 4001158:	1806d5fa 	srli	r3,r3,23
 400115c:	01400584 	movi	r5,22
 4001160:	2005883a 	mov	r2,r4
 4001164:	18ffe044 	addi	r3,r3,-127
 4001168:	28c00c16 	blt	r5,r3,400119c <roundf+0x48>
 400116c:	18001516 	blt	r3,zero,40011c4 <roundf+0x70>
 4001170:	01002034 	movhi	r4,128
 4001174:	213fffc4 	addi	r4,r4,-1
 4001178:	20c9d83a 	sra	r4,r4,r3
 400117c:	208a703a 	and	r5,r4,r2
 4001180:	28000826 	beq	r5,zero,40011a4 <roundf+0x50>
 4001184:	01401034 	movhi	r5,64
 4001188:	28c7d83a 	sra	r3,r5,r3
 400118c:	0108303a 	nor	r4,zero,r4
 4001190:	1885883a 	add	r2,r3,r2
 4001194:	2084703a 	and	r2,r4,r2
 4001198:	f800283a 	ret
 400119c:	01402004 	movi	r5,128
 40011a0:	19400126 	beq	r3,r5,40011a8 <roundf+0x54>
 40011a4:	f800283a 	ret
 40011a8:	deffff04 	addi	sp,sp,-4
 40011ac:	200b883a 	mov	r5,r4
 40011b0:	dfc00015 	stw	ra,0(sp)
 40011b4:	40033b00 	call	40033b0 <__addsf3>
 40011b8:	dfc00017 	ldw	ra,0(sp)
 40011bc:	dec00104 	addi	sp,sp,4
 40011c0:	f800283a 	ret
 40011c4:	20a0002c 	andhi	r2,r4,32768
 40011c8:	013fffc4 	movi	r4,-1
 40011cc:	193ff51e 	bne	r3,r4,40011a4 <__ram_exceptions_end+0xfbfc0f5c>
 40011d0:	108fe034 	orhi	r2,r2,16256
 40011d4:	f800283a 	ret

040011d8 <__ieee754_rem_pio2>:
 40011d8:	02200034 	movhi	r8,32768
 40011dc:	deffea04 	addi	sp,sp,-88
 40011e0:	423fffc4 	addi	r8,r8,-1
 40011e4:	00cffa74 	movhi	r3,16361
 40011e8:	ddc01315 	stw	r23,76(sp)
 40011ec:	dc400d15 	stw	r17,52(sp)
 40011f0:	dfc01515 	stw	ra,84(sp)
 40011f4:	df001415 	stw	fp,80(sp)
 40011f8:	dd801215 	stw	r22,72(sp)
 40011fc:	dd401115 	stw	r21,68(sp)
 4001200:	dd001015 	stw	r20,64(sp)
 4001204:	dcc00f15 	stw	r19,60(sp)
 4001208:	dc800e15 	stw	r18,56(sp)
 400120c:	dc000c15 	stw	r16,48(sp)
 4001210:	2a2e703a 	and	r23,r5,r8
 4001214:	18c87ec4 	addi	r3,r3,8699
 4001218:	2823883a 	mov	r17,r5
 400121c:	1dc0790e 	bge	r3,r23,4001404 <__ieee754_rem_pio2+0x22c>
 4001220:	009000f4 	movhi	r2,16387
 4001224:	10b65ec4 	addi	r2,r2,-9861
 4001228:	3021883a 	mov	r16,r6
 400122c:	2027883a 	mov	r19,r4
 4001230:	15c02316 	blt	r2,r23,40012c0 <__ieee754_rem_pio2+0xe8>
 4001234:	01cffe74 	movhi	r7,16377
 4001238:	39c87ec4 	addi	r7,r7,8699
 400123c:	01951034 	movhi	r6,21568
 4001240:	01417a0e 	bge	zero,r5,400182c <__ieee754_rem_pio2+0x654>
 4001244:	4005a500 	call	4005a50 <__subdf3>
 4001248:	1025883a 	mov	r18,r2
 400124c:	008ffe74 	movhi	r2,16377
 4001250:	10887ec4 	addi	r2,r2,8699
 4001254:	1823883a 	mov	r17,r3
 4001258:	b8808426 	beq	r23,r2,400146c <__ieee754_rem_pio2+0x294>
 400125c:	018698b4 	movhi	r6,6754
 4001260:	01cf7474 	movhi	r7,15825
 4001264:	3198cc44 	addi	r6,r6,25393
 4001268:	39ed1844 	addi	r7,r7,-19359
 400126c:	9009883a 	mov	r4,r18
 4001270:	180b883a 	mov	r5,r3
 4001274:	4005a500 	call	4005a50 <__subdf3>
 4001278:	100d883a 	mov	r6,r2
 400127c:	180f883a 	mov	r7,r3
 4001280:	9009883a 	mov	r4,r18
 4001284:	880b883a 	mov	r5,r17
 4001288:	80800015 	stw	r2,0(r16)
 400128c:	80c00115 	stw	r3,4(r16)
 4001290:	4005a500 	call	4005a50 <__subdf3>
 4001294:	018698b4 	movhi	r6,6754
 4001298:	01cf7474 	movhi	r7,15825
 400129c:	3198cc44 	addi	r6,r6,25393
 40012a0:	39ed1844 	addi	r7,r7,-19359
 40012a4:	1009883a 	mov	r4,r2
 40012a8:	180b883a 	mov	r5,r3
 40012ac:	4005a500 	call	4005a50 <__subdf3>
 40012b0:	80800215 	stw	r2,8(r16)
 40012b4:	80c00315 	stw	r3,12(r16)
 40012b8:	00800044 	movi	r2,1
 40012bc:	00005606 	br	4001418 <__ieee754_rem_pio2+0x240>
 40012c0:	00904e74 	movhi	r2,16697
 40012c4:	10887ec4 	addi	r2,r2,8699
 40012c8:	15c0830e 	bge	r2,r23,40014d8 <__ieee754_rem_pio2+0x300>
 40012cc:	009ffc34 	movhi	r2,32752
 40012d0:	10bfffc4 	addi	r2,r2,-1
 40012d4:	15c05c16 	blt	r2,r23,4001448 <__ieee754_rem_pio2+0x270>
 40012d8:	b829d53a 	srai	r20,r23,20
 40012dc:	a53efa84 	addi	r20,r20,-1046
 40012e0:	a024953a 	slli	r18,r20,20
 40012e4:	bca5c83a 	sub	r18,r23,r18
 40012e8:	900b883a 	mov	r5,r18
 40012ec:	400634c0 	call	400634c <__fixdfsi>
 40012f0:	1009883a 	mov	r4,r2
 40012f4:	40063cc0 	call	40063cc <__floatsidf>
 40012f8:	9809883a 	mov	r4,r19
 40012fc:	900b883a 	mov	r5,r18
 4001300:	100d883a 	mov	r6,r2
 4001304:	180f883a 	mov	r7,r3
 4001308:	d8800215 	stw	r2,8(sp)
 400130c:	d8c00315 	stw	r3,12(sp)
 4001310:	4005a500 	call	4005a50 <__subdf3>
 4001314:	000d883a 	mov	r6,zero
 4001318:	01d05c34 	movhi	r7,16752
 400131c:	1009883a 	mov	r4,r2
 4001320:	180b883a 	mov	r5,r3
 4001324:	40053380 	call	4005338 <__muldf3>
 4001328:	180b883a 	mov	r5,r3
 400132c:	1009883a 	mov	r4,r2
 4001330:	182b883a 	mov	r21,r3
 4001334:	102d883a 	mov	r22,r2
 4001338:	400634c0 	call	400634c <__fixdfsi>
 400133c:	1009883a 	mov	r4,r2
 4001340:	40063cc0 	call	40063cc <__floatsidf>
 4001344:	100d883a 	mov	r6,r2
 4001348:	180f883a 	mov	r7,r3
 400134c:	b009883a 	mov	r4,r22
 4001350:	a80b883a 	mov	r5,r21
 4001354:	1027883a 	mov	r19,r2
 4001358:	1825883a 	mov	r18,r3
 400135c:	d8800415 	stw	r2,16(sp)
 4001360:	d8c00515 	stw	r3,20(sp)
 4001364:	4005a500 	call	4005a50 <__subdf3>
 4001368:	000d883a 	mov	r6,zero
 400136c:	01d05c34 	movhi	r7,16752
 4001370:	1009883a 	mov	r4,r2
 4001374:	180b883a 	mov	r5,r3
 4001378:	40053380 	call	4005338 <__muldf3>
 400137c:	000d883a 	mov	r6,zero
 4001380:	000f883a 	mov	r7,zero
 4001384:	1009883a 	mov	r4,r2
 4001388:	180b883a 	mov	r5,r3
 400138c:	d8800615 	stw	r2,24(sp)
 4001390:	d8c00715 	stw	r3,28(sp)
 4001394:	40051d40 	call	40051d4 <__eqdf2>
 4001398:	1001431e 	bne	r2,zero,40018a8 <__ieee754_rem_pio2+0x6d0>
 400139c:	000f883a 	mov	r7,zero
 40013a0:	000d883a 	mov	r6,zero
 40013a4:	9809883a 	mov	r4,r19
 40013a8:	900b883a 	mov	r5,r18
 40013ac:	40051d40 	call	40051d4 <__eqdf2>
 40013b0:	100f003a 	cmpeq	r7,r2,zero
 40013b4:	00800084 	movi	r2,2
 40013b8:	11cfc83a 	sub	r7,r2,r7
 40013bc:	00800084 	movi	r2,2
 40013c0:	d8800015 	stw	r2,0(sp)
 40013c4:	00810074 	movhi	r2,1025
 40013c8:	10a74004 	addi	r2,r2,-25344
 40013cc:	d8800115 	stw	r2,4(sp)
 40013d0:	a00d883a 	mov	r6,r20
 40013d4:	800b883a 	mov	r5,r16
 40013d8:	d9000204 	addi	r4,sp,8
 40013dc:	4001de80 	call	4001de8 <__kernel_rem_pio2>
 40013e0:	88000d0e 	bge	r17,zero,4001418 <__ieee754_rem_pio2+0x240>
 40013e4:	81000117 	ldw	r4,4(r16)
 40013e8:	80c00317 	ldw	r3,12(r16)
 40013ec:	0085c83a 	sub	r2,zero,r2
 40013f0:	2120003c 	xorhi	r4,r4,32768
 40013f4:	18e0003c 	xorhi	r3,r3,32768
 40013f8:	81000115 	stw	r4,4(r16)
 40013fc:	80c00315 	stw	r3,12(r16)
 4001400:	00000506 	br	4001418 <__ieee754_rem_pio2+0x240>
 4001404:	31000015 	stw	r4,0(r6)
 4001408:	31400115 	stw	r5,4(r6)
 400140c:	30000215 	stw	zero,8(r6)
 4001410:	30000315 	stw	zero,12(r6)
 4001414:	0005883a 	mov	r2,zero
 4001418:	dfc01517 	ldw	ra,84(sp)
 400141c:	df001417 	ldw	fp,80(sp)
 4001420:	ddc01317 	ldw	r23,76(sp)
 4001424:	dd801217 	ldw	r22,72(sp)
 4001428:	dd401117 	ldw	r21,68(sp)
 400142c:	dd001017 	ldw	r20,64(sp)
 4001430:	dcc00f17 	ldw	r19,60(sp)
 4001434:	dc800e17 	ldw	r18,56(sp)
 4001438:	dc400d17 	ldw	r17,52(sp)
 400143c:	dc000c17 	ldw	r16,48(sp)
 4001440:	dec01604 	addi	sp,sp,88
 4001444:	f800283a 	ret
 4001448:	200d883a 	mov	r6,r4
 400144c:	280f883a 	mov	r7,r5
 4001450:	4005a500 	call	4005a50 <__subdf3>
 4001454:	80800215 	stw	r2,8(r16)
 4001458:	80800015 	stw	r2,0(r16)
 400145c:	80c00315 	stw	r3,12(r16)
 4001460:	80c00115 	stw	r3,4(r16)
 4001464:	0005883a 	mov	r2,zero
 4001468:	003feb06 	br	4001418 <__ram_exceptions_end+0xfbfc11d0>
 400146c:	01cf7474 	movhi	r7,15825
 4001470:	9009883a 	mov	r4,r18
 4001474:	39ed1844 	addi	r7,r7,-19359
 4001478:	01869834 	movhi	r6,6752
 400147c:	180b883a 	mov	r5,r3
 4001480:	4005a500 	call	4005a50 <__subdf3>
 4001484:	018b80f4 	movhi	r6,11779
 4001488:	01cee8f4 	movhi	r7,15267
 400148c:	319c1cc4 	addi	r6,r6,28787
 4001490:	39c66284 	addi	r7,r7,6538
 4001494:	1009883a 	mov	r4,r2
 4001498:	180b883a 	mov	r5,r3
 400149c:	1025883a 	mov	r18,r2
 40014a0:	1823883a 	mov	r17,r3
 40014a4:	4005a500 	call	4005a50 <__subdf3>
 40014a8:	100d883a 	mov	r6,r2
 40014ac:	180f883a 	mov	r7,r3
 40014b0:	9009883a 	mov	r4,r18
 40014b4:	880b883a 	mov	r5,r17
 40014b8:	80800015 	stw	r2,0(r16)
 40014bc:	80c00115 	stw	r3,4(r16)
 40014c0:	4005a500 	call	4005a50 <__subdf3>
 40014c4:	018b80f4 	movhi	r6,11779
 40014c8:	01cee8f4 	movhi	r7,15267
 40014cc:	319c1cc4 	addi	r6,r6,28787
 40014d0:	39c66284 	addi	r7,r7,6538
 40014d4:	003f7306 	br	40012a4 <__ram_exceptions_end+0xfbfc105c>
 40014d8:	4002e440 	call	4002e44 <fabs>
 40014dc:	019b72b4 	movhi	r6,28106
 40014e0:	01cff934 	movhi	r7,16356
 40014e4:	31b220c4 	addi	r6,r6,-14205
 40014e8:	39d7cc04 	addi	r7,r7,24368
 40014ec:	1009883a 	mov	r4,r2
 40014f0:	180b883a 	mov	r5,r3
 40014f4:	102d883a 	mov	r22,r2
 40014f8:	182b883a 	mov	r21,r3
 40014fc:	40053380 	call	4005338 <__muldf3>
 4001500:	000d883a 	mov	r6,zero
 4001504:	01cff834 	movhi	r7,16352
 4001508:	1009883a 	mov	r4,r2
 400150c:	180b883a 	mov	r5,r3
 4001510:	40049280 	call	4004928 <__adddf3>
 4001514:	180b883a 	mov	r5,r3
 4001518:	1009883a 	mov	r4,r2
 400151c:	400634c0 	call	400634c <__fixdfsi>
 4001520:	1009883a 	mov	r4,r2
 4001524:	1025883a 	mov	r18,r2
 4001528:	40063cc0 	call	40063cc <__floatsidf>
 400152c:	01cffe74 	movhi	r7,16377
 4001530:	39c87ec4 	addi	r7,r7,8699
 4001534:	01951034 	movhi	r6,21568
 4001538:	1009883a 	mov	r4,r2
 400153c:	180b883a 	mov	r5,r3
 4001540:	1029883a 	mov	r20,r2
 4001544:	1827883a 	mov	r19,r3
 4001548:	40053380 	call	4005338 <__muldf3>
 400154c:	b009883a 	mov	r4,r22
 4001550:	a80b883a 	mov	r5,r21
 4001554:	100d883a 	mov	r6,r2
 4001558:	180f883a 	mov	r7,r3
 400155c:	4005a500 	call	4005a50 <__subdf3>
 4001560:	018698b4 	movhi	r6,6754
 4001564:	01cf7474 	movhi	r7,15825
 4001568:	a009883a 	mov	r4,r20
 400156c:	3198cc44 	addi	r6,r6,25393
 4001570:	39ed1844 	addi	r7,r7,-19359
 4001574:	980b883a 	mov	r5,r19
 4001578:	1039883a 	mov	fp,r2
 400157c:	d8c00815 	stw	r3,32(sp)
 4001580:	40053380 	call	4005338 <__muldf3>
 4001584:	010007c4 	movi	r4,31
 4001588:	e017883a 	mov	r11,fp
 400158c:	da800817 	ldw	r10,32(sp)
 4001590:	102d883a 	mov	r22,r2
 4001594:	182b883a 	mov	r21,r3
 4001598:	24802816 	blt	r4,r18,400163c <__ieee754_rem_pio2+0x464>
 400159c:	913fffc4 	addi	r4,r18,-1
 40015a0:	2109883a 	add	r4,r4,r4
 40015a4:	01410074 	movhi	r5,1025
 40015a8:	2109883a 	add	r4,r4,r4
 40015ac:	29672004 	addi	r5,r5,-25472
 40015b0:	2909883a 	add	r4,r5,r4
 40015b4:	21000017 	ldw	r4,0(r4)
 40015b8:	b9002026 	beq	r23,r4,400163c <__ieee754_rem_pio2+0x464>
 40015bc:	100d883a 	mov	r6,r2
 40015c0:	180f883a 	mov	r7,r3
 40015c4:	e009883a 	mov	r4,fp
 40015c8:	500b883a 	mov	r5,r10
 40015cc:	da800b15 	stw	r10,44(sp)
 40015d0:	df000a15 	stw	fp,40(sp)
 40015d4:	4005a500 	call	4005a50 <__subdf3>
 40015d8:	da800b17 	ldw	r10,44(sp)
 40015dc:	dac00a17 	ldw	r11,40(sp)
 40015e0:	1019883a 	mov	r12,r2
 40015e4:	1813883a 	mov	r9,r3
 40015e8:	80800015 	stw	r2,0(r16)
 40015ec:	80c00115 	stw	r3,4(r16)
 40015f0:	600d883a 	mov	r6,r12
 40015f4:	480f883a 	mov	r7,r9
 40015f8:	5809883a 	mov	r4,r11
 40015fc:	500b883a 	mov	r5,r10
 4001600:	da400b15 	stw	r9,44(sp)
 4001604:	db000a15 	stw	r12,40(sp)
 4001608:	4005a500 	call	4005a50 <__subdf3>
 400160c:	b00d883a 	mov	r6,r22
 4001610:	a80f883a 	mov	r7,r21
 4001614:	1009883a 	mov	r4,r2
 4001618:	180b883a 	mov	r5,r3
 400161c:	4005a500 	call	4005a50 <__subdf3>
 4001620:	80800215 	stw	r2,8(r16)
 4001624:	80c00315 	stw	r3,12(r16)
 4001628:	da400b17 	ldw	r9,44(sp)
 400162c:	db000a17 	ldw	r12,40(sp)
 4001630:	88009f16 	blt	r17,zero,40018b0 <__ieee754_rem_pio2+0x6d8>
 4001634:	9005883a 	mov	r2,r18
 4001638:	003f7706 	br	4001418 <__ram_exceptions_end+0xfbfc11d0>
 400163c:	d9400817 	ldw	r5,32(sp)
 4001640:	100d883a 	mov	r6,r2
 4001644:	180f883a 	mov	r7,r3
 4001648:	e009883a 	mov	r4,fp
 400164c:	da800b15 	stw	r10,44(sp)
 4001650:	dac00a15 	stw	r11,40(sp)
 4001654:	4005a500 	call	4005a50 <__subdf3>
 4001658:	1019883a 	mov	r12,r2
 400165c:	1804d53a 	srli	r2,r3,20
 4001660:	b811d53a 	srai	r8,r23,20
 4001664:	1813883a 	mov	r9,r3
 4001668:	1081ffcc 	andi	r2,r2,2047
 400166c:	80c00115 	stw	r3,4(r16)
 4001670:	83000015 	stw	r12,0(r16)
 4001674:	4085c83a 	sub	r2,r8,r2
 4001678:	00c00404 	movi	r3,16
 400167c:	da800b17 	ldw	r10,44(sp)
 4001680:	dac00a17 	ldw	r11,40(sp)
 4001684:	18bfda0e 	bge	r3,r2,40015f0 <__ram_exceptions_end+0xfbfc13a8>
 4001688:	01cf7474 	movhi	r7,15825
 400168c:	39ed1844 	addi	r7,r7,-19359
 4001690:	01869834 	movhi	r6,6752
 4001694:	a009883a 	mov	r4,r20
 4001698:	980b883a 	mov	r5,r19
 400169c:	da000a15 	stw	r8,40(sp)
 40016a0:	40053380 	call	4005338 <__muldf3>
 40016a4:	d9400817 	ldw	r5,32(sp)
 40016a8:	100d883a 	mov	r6,r2
 40016ac:	180f883a 	mov	r7,r3
 40016b0:	e009883a 	mov	r4,fp
 40016b4:	102d883a 	mov	r22,r2
 40016b8:	182b883a 	mov	r21,r3
 40016bc:	4005a500 	call	4005a50 <__subdf3>
 40016c0:	d9400817 	ldw	r5,32(sp)
 40016c4:	100d883a 	mov	r6,r2
 40016c8:	180f883a 	mov	r7,r3
 40016cc:	e009883a 	mov	r4,fp
 40016d0:	182f883a 	mov	r23,r3
 40016d4:	d8800915 	stw	r2,36(sp)
 40016d8:	4005a500 	call	4005a50 <__subdf3>
 40016dc:	b00d883a 	mov	r6,r22
 40016e0:	a80f883a 	mov	r7,r21
 40016e4:	1009883a 	mov	r4,r2
 40016e8:	180b883a 	mov	r5,r3
 40016ec:	4005a500 	call	4005a50 <__subdf3>
 40016f0:	018b80f4 	movhi	r6,11779
 40016f4:	01cee8f4 	movhi	r7,15267
 40016f8:	319c1cc4 	addi	r6,r6,28787
 40016fc:	39c66284 	addi	r7,r7,6538
 4001700:	a009883a 	mov	r4,r20
 4001704:	980b883a 	mov	r5,r19
 4001708:	102d883a 	mov	r22,r2
 400170c:	182b883a 	mov	r21,r3
 4001710:	40053380 	call	4005338 <__muldf3>
 4001714:	b00d883a 	mov	r6,r22
 4001718:	a80f883a 	mov	r7,r21
 400171c:	1009883a 	mov	r4,r2
 4001720:	180b883a 	mov	r5,r3
 4001724:	4005a500 	call	4005a50 <__subdf3>
 4001728:	d9000917 	ldw	r4,36(sp)
 400172c:	100d883a 	mov	r6,r2
 4001730:	180f883a 	mov	r7,r3
 4001734:	b80b883a 	mov	r5,r23
 4001738:	102d883a 	mov	r22,r2
 400173c:	182b883a 	mov	r21,r3
 4001740:	4005a500 	call	4005a50 <__subdf3>
 4001744:	1019883a 	mov	r12,r2
 4001748:	1804d53a 	srli	r2,r3,20
 400174c:	da000a17 	ldw	r8,40(sp)
 4001750:	83000015 	stw	r12,0(r16)
 4001754:	1081ffcc 	andi	r2,r2,2047
 4001758:	4091c83a 	sub	r8,r8,r2
 400175c:	80c00115 	stw	r3,4(r16)
 4001760:	00800c44 	movi	r2,49
 4001764:	1813883a 	mov	r9,r3
 4001768:	1200730e 	bge	r2,r8,4001938 <__ieee754_rem_pio2+0x760>
 400176c:	01cee8f4 	movhi	r7,15267
 4001770:	39c66284 	addi	r7,r7,6538
 4001774:	018b8034 	movhi	r6,11776
 4001778:	a009883a 	mov	r4,r20
 400177c:	980b883a 	mov	r5,r19
 4001780:	40053380 	call	4005338 <__muldf3>
 4001784:	d9000917 	ldw	r4,36(sp)
 4001788:	100d883a 	mov	r6,r2
 400178c:	180f883a 	mov	r7,r3
 4001790:	b80b883a 	mov	r5,r23
 4001794:	102d883a 	mov	r22,r2
 4001798:	182b883a 	mov	r21,r3
 400179c:	4005a500 	call	4005a50 <__subdf3>
 40017a0:	d9000917 	ldw	r4,36(sp)
 40017a4:	100d883a 	mov	r6,r2
 40017a8:	180f883a 	mov	r7,r3
 40017ac:	b80b883a 	mov	r5,r23
 40017b0:	d8c00b15 	stw	r3,44(sp)
 40017b4:	d8800a15 	stw	r2,40(sp)
 40017b8:	4005a500 	call	4005a50 <__subdf3>
 40017bc:	b00d883a 	mov	r6,r22
 40017c0:	a80f883a 	mov	r7,r21
 40017c4:	1009883a 	mov	r4,r2
 40017c8:	180b883a 	mov	r5,r3
 40017cc:	4005a500 	call	4005a50 <__subdf3>
 40017d0:	01894834 	movhi	r6,9504
 40017d4:	01ce5f34 	movhi	r7,14716
 40017d8:	31927044 	addi	r6,r6,18881
 40017dc:	39e0e684 	addi	r7,r7,-31846
 40017e0:	a009883a 	mov	r4,r20
 40017e4:	980b883a 	mov	r5,r19
 40017e8:	102d883a 	mov	r22,r2
 40017ec:	182b883a 	mov	r21,r3
 40017f0:	40053380 	call	4005338 <__muldf3>
 40017f4:	b00d883a 	mov	r6,r22
 40017f8:	a80f883a 	mov	r7,r21
 40017fc:	1009883a 	mov	r4,r2
 4001800:	180b883a 	mov	r5,r3
 4001804:	4005a500 	call	4005a50 <__subdf3>
 4001808:	dac00a17 	ldw	r11,40(sp)
 400180c:	da800b17 	ldw	r10,44(sp)
 4001810:	102d883a 	mov	r22,r2
 4001814:	182b883a 	mov	r21,r3
 4001818:	100d883a 	mov	r6,r2
 400181c:	180f883a 	mov	r7,r3
 4001820:	5809883a 	mov	r4,r11
 4001824:	500b883a 	mov	r5,r10
 4001828:	003f6a06 	br	40015d4 <__ram_exceptions_end+0xfbfc138c>
 400182c:	40049280 	call	4004928 <__adddf3>
 4001830:	1025883a 	mov	r18,r2
 4001834:	008ffe74 	movhi	r2,16377
 4001838:	10887ec4 	addi	r2,r2,8699
 400183c:	1823883a 	mov	r17,r3
 4001840:	b8802226 	beq	r23,r2,40018cc <__ieee754_rem_pio2+0x6f4>
 4001844:	018698b4 	movhi	r6,6754
 4001848:	01cf7474 	movhi	r7,15825
 400184c:	3198cc44 	addi	r6,r6,25393
 4001850:	39ed1844 	addi	r7,r7,-19359
 4001854:	9009883a 	mov	r4,r18
 4001858:	180b883a 	mov	r5,r3
 400185c:	40049280 	call	4004928 <__adddf3>
 4001860:	100d883a 	mov	r6,r2
 4001864:	180f883a 	mov	r7,r3
 4001868:	9009883a 	mov	r4,r18
 400186c:	880b883a 	mov	r5,r17
 4001870:	80800015 	stw	r2,0(r16)
 4001874:	80c00115 	stw	r3,4(r16)
 4001878:	4005a500 	call	4005a50 <__subdf3>
 400187c:	018698b4 	movhi	r6,6754
 4001880:	01cf7474 	movhi	r7,15825
 4001884:	3198cc44 	addi	r6,r6,25393
 4001888:	39ed1844 	addi	r7,r7,-19359
 400188c:	1009883a 	mov	r4,r2
 4001890:	180b883a 	mov	r5,r3
 4001894:	40049280 	call	4004928 <__adddf3>
 4001898:	80800215 	stw	r2,8(r16)
 400189c:	80c00315 	stw	r3,12(r16)
 40018a0:	00bfffc4 	movi	r2,-1
 40018a4:	003edc06 	br	4001418 <__ram_exceptions_end+0xfbfc11d0>
 40018a8:	01c000c4 	movi	r7,3
 40018ac:	003ec306 	br	40013bc <__ram_exceptions_end+0xfbfc1174>
 40018b0:	4a60003c 	xorhi	r9,r9,32768
 40018b4:	18e0003c 	xorhi	r3,r3,32768
 40018b8:	83000015 	stw	r12,0(r16)
 40018bc:	82400115 	stw	r9,4(r16)
 40018c0:	80c00315 	stw	r3,12(r16)
 40018c4:	0485c83a 	sub	r2,zero,r18
 40018c8:	003ed306 	br	4001418 <__ram_exceptions_end+0xfbfc11d0>
 40018cc:	01cf7474 	movhi	r7,15825
 40018d0:	9009883a 	mov	r4,r18
 40018d4:	39ed1844 	addi	r7,r7,-19359
 40018d8:	01869834 	movhi	r6,6752
 40018dc:	180b883a 	mov	r5,r3
 40018e0:	40049280 	call	4004928 <__adddf3>
 40018e4:	018b80f4 	movhi	r6,11779
 40018e8:	01cee8f4 	movhi	r7,15267
 40018ec:	319c1cc4 	addi	r6,r6,28787
 40018f0:	39c66284 	addi	r7,r7,6538
 40018f4:	1009883a 	mov	r4,r2
 40018f8:	180b883a 	mov	r5,r3
 40018fc:	1025883a 	mov	r18,r2
 4001900:	1823883a 	mov	r17,r3
 4001904:	40049280 	call	4004928 <__adddf3>
 4001908:	100d883a 	mov	r6,r2
 400190c:	180f883a 	mov	r7,r3
 4001910:	9009883a 	mov	r4,r18
 4001914:	880b883a 	mov	r5,r17
 4001918:	80800015 	stw	r2,0(r16)
 400191c:	80c00115 	stw	r3,4(r16)
 4001920:	4005a500 	call	4005a50 <__subdf3>
 4001924:	018b80f4 	movhi	r6,11779
 4001928:	01cee8f4 	movhi	r7,15267
 400192c:	319c1cc4 	addi	r6,r6,28787
 4001930:	39c66284 	addi	r7,r7,6538
 4001934:	003fd506 	br	400188c <__ram_exceptions_end+0xfbfc1644>
 4001938:	dac00917 	ldw	r11,36(sp)
 400193c:	b815883a 	mov	r10,r23
 4001940:	003f2b06 	br	40015f0 <__ram_exceptions_end+0xfbfc13a8>

04001944 <__kernel_cos>:
 4001944:	defff304 	addi	sp,sp,-52
 4001948:	dc000315 	stw	r16,12(sp)
 400194c:	04200034 	movhi	r16,32768
 4001950:	843fffc4 	addi	r16,r16,-1
 4001954:	008f9034 	movhi	r2,15936
 4001958:	df000b15 	stw	fp,44(sp)
 400195c:	ddc00a15 	stw	r23,40(sp)
 4001960:	dd800915 	stw	r22,36(sp)
 4001964:	dcc00615 	stw	r19,24(sp)
 4001968:	dfc00c15 	stw	ra,48(sp)
 400196c:	dd400815 	stw	r21,32(sp)
 4001970:	dd000715 	stw	r20,28(sp)
 4001974:	dc800515 	stw	r18,20(sp)
 4001978:	dc400415 	stw	r17,16(sp)
 400197c:	2c20703a 	and	r16,r5,r16
 4001980:	10bfffc4 	addi	r2,r2,-1
 4001984:	2827883a 	mov	r19,r5
 4001988:	202d883a 	mov	r22,r4
 400198c:	302f883a 	mov	r23,r6
 4001990:	3839883a 	mov	fp,r7
 4001994:	14007516 	blt	r2,r16,4001b6c <__kernel_cos+0x228>
 4001998:	400634c0 	call	400634c <__fixdfsi>
 400199c:	10010f26 	beq	r2,zero,4001ddc <__kernel_cos+0x498>
 40019a0:	b00d883a 	mov	r6,r22
 40019a4:	980f883a 	mov	r7,r19
 40019a8:	b009883a 	mov	r4,r22
 40019ac:	980b883a 	mov	r5,r19
 40019b0:	40053380 	call	4005338 <__muldf3>
 40019b4:	01afa234 	movhi	r6,48776
 40019b8:	01ef6a74 	movhi	r7,48553
 40019bc:	318e3504 	addi	r6,r6,14548
 40019c0:	39feba44 	addi	r7,r7,-1303
 40019c4:	1009883a 	mov	r4,r2
 40019c8:	180b883a 	mov	r5,r3
 40019cc:	102b883a 	mov	r21,r2
 40019d0:	1829883a 	mov	r20,r3
 40019d4:	40053380 	call	4005338 <__muldf3>
 40019d8:	01af6d74 	movhi	r6,48565
 40019dc:	01cf88b4 	movhi	r7,15906
 40019e0:	31ac7104 	addi	r6,r6,-20028
 40019e4:	39fba784 	addi	r7,r7,-4450
 40019e8:	1009883a 	mov	r4,r2
 40019ec:	180b883a 	mov	r5,r3
 40019f0:	40049280 	call	4004928 <__adddf3>
 40019f4:	a80d883a 	mov	r6,r21
 40019f8:	a00f883a 	mov	r7,r20
 40019fc:	1009883a 	mov	r4,r2
 4001a00:	180b883a 	mov	r5,r3
 4001a04:	40053380 	call	4005338 <__muldf3>
 4001a08:	01a02734 	movhi	r6,32924
 4001a0c:	01cfa4b4 	movhi	r7,16018
 4001a10:	3194ab44 	addi	r6,r6,21165
 4001a14:	39df93c4 	addi	r7,r7,32335
 4001a18:	1009883a 	mov	r4,r2
 4001a1c:	180b883a 	mov	r5,r3
 4001a20:	4005a500 	call	4005a50 <__subdf3>
 4001a24:	a80d883a 	mov	r6,r21
 4001a28:	a00f883a 	mov	r7,r20
 4001a2c:	1009883a 	mov	r4,r2
 4001a30:	180b883a 	mov	r5,r3
 4001a34:	40053380 	call	4005338 <__muldf3>
 4001a38:	018672f4 	movhi	r6,6603
 4001a3c:	01cfbeb4 	movhi	r7,16122
 4001a40:	31856404 	addi	r6,r6,5520
 4001a44:	39c06804 	addi	r7,r7,416
 4001a48:	1009883a 	mov	r4,r2
 4001a4c:	180b883a 	mov	r5,r3
 4001a50:	40049280 	call	4004928 <__adddf3>
 4001a54:	a80d883a 	mov	r6,r21
 4001a58:	a00f883a 	mov	r7,r20
 4001a5c:	1009883a 	mov	r4,r2
 4001a60:	180b883a 	mov	r5,r3
 4001a64:	40053380 	call	4005338 <__muldf3>
 4001a68:	0185b074 	movhi	r6,5825
 4001a6c:	01cfd5f4 	movhi	r7,16215
 4001a70:	31945dc4 	addi	r6,r6,20855
 4001a74:	39f05b04 	addi	r7,r7,-16020
 4001a78:	1009883a 	mov	r4,r2
 4001a7c:	180b883a 	mov	r5,r3
 4001a80:	4005a500 	call	4005a50 <__subdf3>
 4001a84:	a80d883a 	mov	r6,r21
 4001a88:	a00f883a 	mov	r7,r20
 4001a8c:	1009883a 	mov	r4,r2
 4001a90:	180b883a 	mov	r5,r3
 4001a94:	40053380 	call	4005338 <__muldf3>
 4001a98:	01955574 	movhi	r6,21845
 4001a9c:	01cfe974 	movhi	r7,16293
 4001aa0:	31955304 	addi	r6,r6,21836
 4001aa4:	39d55544 	addi	r7,r7,21845
 4001aa8:	1009883a 	mov	r4,r2
 4001aac:	180b883a 	mov	r5,r3
 4001ab0:	40049280 	call	4004928 <__adddf3>
 4001ab4:	a80d883a 	mov	r6,r21
 4001ab8:	a00f883a 	mov	r7,r20
 4001abc:	1009883a 	mov	r4,r2
 4001ac0:	180b883a 	mov	r5,r3
 4001ac4:	40053380 	call	4005338 <__muldf3>
 4001ac8:	1017883a 	mov	r11,r2
 4001acc:	1815883a 	mov	r10,r3
 4001ad0:	a809883a 	mov	r4,r21
 4001ad4:	a00b883a 	mov	r5,r20
 4001ad8:	000d883a 	mov	r6,zero
 4001adc:	01cff834 	movhi	r7,16352
 4001ae0:	da800215 	stw	r10,8(sp)
 4001ae4:	dac00115 	stw	r11,4(sp)
 4001ae8:	40053380 	call	4005338 <__muldf3>
 4001aec:	dac00117 	ldw	r11,4(sp)
 4001af0:	da800217 	ldw	r10,8(sp)
 4001af4:	a809883a 	mov	r4,r21
 4001af8:	580d883a 	mov	r6,r11
 4001afc:	500f883a 	mov	r7,r10
 4001b00:	a00b883a 	mov	r5,r20
 4001b04:	1023883a 	mov	r17,r2
 4001b08:	1821883a 	mov	r16,r3
 4001b0c:	40053380 	call	4005338 <__muldf3>
 4001b10:	b80d883a 	mov	r6,r23
 4001b14:	e00f883a 	mov	r7,fp
 4001b18:	b009883a 	mov	r4,r22
 4001b1c:	980b883a 	mov	r5,r19
 4001b20:	1029883a 	mov	r20,r2
 4001b24:	1825883a 	mov	r18,r3
 4001b28:	40053380 	call	4005338 <__muldf3>
 4001b2c:	a009883a 	mov	r4,r20
 4001b30:	900b883a 	mov	r5,r18
 4001b34:	100d883a 	mov	r6,r2
 4001b38:	180f883a 	mov	r7,r3
 4001b3c:	4005a500 	call	4005a50 <__subdf3>
 4001b40:	8809883a 	mov	r4,r17
 4001b44:	800b883a 	mov	r5,r16
 4001b48:	100d883a 	mov	r6,r2
 4001b4c:	180f883a 	mov	r7,r3
 4001b50:	4005a500 	call	4005a50 <__subdf3>
 4001b54:	100d883a 	mov	r6,r2
 4001b58:	180f883a 	mov	r7,r3
 4001b5c:	0009883a 	mov	r4,zero
 4001b60:	014ffc34 	movhi	r5,16368
 4001b64:	4005a500 	call	4005a50 <__subdf3>
 4001b68:	00008b06 	br	4001d98 <__kernel_cos+0x454>
 4001b6c:	200d883a 	mov	r6,r4
 4001b70:	280f883a 	mov	r7,r5
 4001b74:	40053380 	call	4005338 <__muldf3>
 4001b78:	01afa234 	movhi	r6,48776
 4001b7c:	01ef6a74 	movhi	r7,48553
 4001b80:	318e3504 	addi	r6,r6,14548
 4001b84:	39feba44 	addi	r7,r7,-1303
 4001b88:	1009883a 	mov	r4,r2
 4001b8c:	180b883a 	mov	r5,r3
 4001b90:	1025883a 	mov	r18,r2
 4001b94:	1823883a 	mov	r17,r3
 4001b98:	40053380 	call	4005338 <__muldf3>
 4001b9c:	01af6d74 	movhi	r6,48565
 4001ba0:	01cf88b4 	movhi	r7,15906
 4001ba4:	31ac7104 	addi	r6,r6,-20028
 4001ba8:	39fba784 	addi	r7,r7,-4450
 4001bac:	1009883a 	mov	r4,r2
 4001bb0:	180b883a 	mov	r5,r3
 4001bb4:	40049280 	call	4004928 <__adddf3>
 4001bb8:	900d883a 	mov	r6,r18
 4001bbc:	880f883a 	mov	r7,r17
 4001bc0:	1009883a 	mov	r4,r2
 4001bc4:	180b883a 	mov	r5,r3
 4001bc8:	40053380 	call	4005338 <__muldf3>
 4001bcc:	01a02734 	movhi	r6,32924
 4001bd0:	01cfa4b4 	movhi	r7,16018
 4001bd4:	3194ab44 	addi	r6,r6,21165
 4001bd8:	39df93c4 	addi	r7,r7,32335
 4001bdc:	1009883a 	mov	r4,r2
 4001be0:	180b883a 	mov	r5,r3
 4001be4:	4005a500 	call	4005a50 <__subdf3>
 4001be8:	900d883a 	mov	r6,r18
 4001bec:	880f883a 	mov	r7,r17
 4001bf0:	1009883a 	mov	r4,r2
 4001bf4:	180b883a 	mov	r5,r3
 4001bf8:	40053380 	call	4005338 <__muldf3>
 4001bfc:	018672f4 	movhi	r6,6603
 4001c00:	01cfbeb4 	movhi	r7,16122
 4001c04:	31856404 	addi	r6,r6,5520
 4001c08:	39c06804 	addi	r7,r7,416
 4001c0c:	1009883a 	mov	r4,r2
 4001c10:	180b883a 	mov	r5,r3
 4001c14:	40049280 	call	4004928 <__adddf3>
 4001c18:	900d883a 	mov	r6,r18
 4001c1c:	880f883a 	mov	r7,r17
 4001c20:	1009883a 	mov	r4,r2
 4001c24:	180b883a 	mov	r5,r3
 4001c28:	40053380 	call	4005338 <__muldf3>
 4001c2c:	0185b074 	movhi	r6,5825
 4001c30:	01cfd5f4 	movhi	r7,16215
 4001c34:	31945dc4 	addi	r6,r6,20855
 4001c38:	39f05b04 	addi	r7,r7,-16020
 4001c3c:	1009883a 	mov	r4,r2
 4001c40:	180b883a 	mov	r5,r3
 4001c44:	4005a500 	call	4005a50 <__subdf3>
 4001c48:	900d883a 	mov	r6,r18
 4001c4c:	880f883a 	mov	r7,r17
 4001c50:	1009883a 	mov	r4,r2
 4001c54:	180b883a 	mov	r5,r3
 4001c58:	40053380 	call	4005338 <__muldf3>
 4001c5c:	01955574 	movhi	r6,21845
 4001c60:	01cfe974 	movhi	r7,16293
 4001c64:	31955304 	addi	r6,r6,21836
 4001c68:	39d55544 	addi	r7,r7,21845
 4001c6c:	1009883a 	mov	r4,r2
 4001c70:	180b883a 	mov	r5,r3
 4001c74:	40049280 	call	4004928 <__adddf3>
 4001c78:	900d883a 	mov	r6,r18
 4001c7c:	880f883a 	mov	r7,r17
 4001c80:	1009883a 	mov	r4,r2
 4001c84:	180b883a 	mov	r5,r3
 4001c88:	40053380 	call	4005338 <__muldf3>
 4001c8c:	1013883a 	mov	r9,r2
 4001c90:	1017883a 	mov	r11,r2
 4001c94:	008ff4f4 	movhi	r2,16339
 4001c98:	108ccc84 	addi	r2,r2,13106
 4001c9c:	1811883a 	mov	r8,r3
 4001ca0:	902b883a 	mov	r21,r18
 4001ca4:	8829883a 	mov	r20,r17
 4001ca8:	1815883a 	mov	r10,r3
 4001cac:	143f880e 	bge	r2,r16,4001ad0 <__ram_exceptions_end+0xfbfc1888>
 4001cb0:	008ffa74 	movhi	r2,16361
 4001cb4:	14004416 	blt	r2,r16,4001dc8 <__kernel_cos+0x484>
 4001cb8:	00bff834 	movhi	r2,65504
 4001cbc:	80a1883a 	add	r16,r16,r2
 4001cc0:	000d883a 	mov	r6,zero
 4001cc4:	800f883a 	mov	r7,r16
 4001cc8:	0009883a 	mov	r4,zero
 4001ccc:	014ffc34 	movhi	r5,16368
 4001cd0:	da400115 	stw	r9,4(sp)
 4001cd4:	d8c00215 	stw	r3,8(sp)
 4001cd8:	4005a500 	call	4005a50 <__subdf3>
 4001cdc:	da000217 	ldw	r8,8(sp)
 4001ce0:	da400117 	ldw	r9,4(sp)
 4001ce4:	102b883a 	mov	r21,r2
 4001ce8:	d8c00015 	stw	r3,0(sp)
 4001cec:	9009883a 	mov	r4,r18
 4001cf0:	880b883a 	mov	r5,r17
 4001cf4:	000d883a 	mov	r6,zero
 4001cf8:	01cff834 	movhi	r7,16352
 4001cfc:	da000215 	stw	r8,8(sp)
 4001d00:	da400115 	stw	r9,4(sp)
 4001d04:	40053380 	call	4005338 <__muldf3>
 4001d08:	800f883a 	mov	r7,r16
 4001d0c:	000d883a 	mov	r6,zero
 4001d10:	1009883a 	mov	r4,r2
 4001d14:	180b883a 	mov	r5,r3
 4001d18:	4005a500 	call	4005a50 <__subdf3>
 4001d1c:	da400117 	ldw	r9,4(sp)
 4001d20:	da000217 	ldw	r8,8(sp)
 4001d24:	9009883a 	mov	r4,r18
 4001d28:	480d883a 	mov	r6,r9
 4001d2c:	400f883a 	mov	r7,r8
 4001d30:	880b883a 	mov	r5,r17
 4001d34:	1029883a 	mov	r20,r2
 4001d38:	1821883a 	mov	r16,r3
 4001d3c:	40053380 	call	4005338 <__muldf3>
 4001d40:	b80d883a 	mov	r6,r23
 4001d44:	e00f883a 	mov	r7,fp
 4001d48:	b009883a 	mov	r4,r22
 4001d4c:	980b883a 	mov	r5,r19
 4001d50:	1025883a 	mov	r18,r2
 4001d54:	1823883a 	mov	r17,r3
 4001d58:	40053380 	call	4005338 <__muldf3>
 4001d5c:	100d883a 	mov	r6,r2
 4001d60:	180f883a 	mov	r7,r3
 4001d64:	9009883a 	mov	r4,r18
 4001d68:	880b883a 	mov	r5,r17
 4001d6c:	4005a500 	call	4005a50 <__subdf3>
 4001d70:	100d883a 	mov	r6,r2
 4001d74:	180f883a 	mov	r7,r3
 4001d78:	a009883a 	mov	r4,r20
 4001d7c:	800b883a 	mov	r5,r16
 4001d80:	4005a500 	call	4005a50 <__subdf3>
 4001d84:	d9400017 	ldw	r5,0(sp)
 4001d88:	100d883a 	mov	r6,r2
 4001d8c:	180f883a 	mov	r7,r3
 4001d90:	a809883a 	mov	r4,r21
 4001d94:	4005a500 	call	4005a50 <__subdf3>
 4001d98:	dfc00c17 	ldw	ra,48(sp)
 4001d9c:	df000b17 	ldw	fp,44(sp)
 4001da0:	ddc00a17 	ldw	r23,40(sp)
 4001da4:	dd800917 	ldw	r22,36(sp)
 4001da8:	dd400817 	ldw	r21,32(sp)
 4001dac:	dd000717 	ldw	r20,28(sp)
 4001db0:	dcc00617 	ldw	r19,24(sp)
 4001db4:	dc800517 	ldw	r18,20(sp)
 4001db8:	dc400417 	ldw	r17,16(sp)
 4001dbc:	dc000317 	ldw	r16,12(sp)
 4001dc0:	dec00d04 	addi	sp,sp,52
 4001dc4:	f800283a 	ret
 4001dc8:	008ff9f4 	movhi	r2,16359
 4001dcc:	002b883a 	mov	r21,zero
 4001dd0:	d8800015 	stw	r2,0(sp)
 4001dd4:	040ff4b4 	movhi	r16,16338
 4001dd8:	003fc406 	br	4001cec <__ram_exceptions_end+0xfbfc1aa4>
 4001ddc:	0005883a 	mov	r2,zero
 4001de0:	00cffc34 	movhi	r3,16368
 4001de4:	003fec06 	br	4001d98 <__ram_exceptions_end+0xfbfc1b50>

04001de8 <__kernel_rem_pio2>:
 4001de8:	deff5a04 	addi	sp,sp,-664
 4001dec:	da00a617 	ldw	r8,664(sp)
 4001df0:	00c10074 	movhi	r3,1025
 4001df4:	18e79204 	addi	r3,r3,-25016
 4001df8:	4205883a 	add	r2,r8,r8
 4001dfc:	1085883a 	add	r2,r2,r2
 4001e00:	1885883a 	add	r2,r3,r2
 4001e04:	d9008e15 	stw	r4,568(sp)
 4001e08:	d9408f15 	stw	r5,572(sp)
 4001e0c:	313fff44 	addi	r4,r6,-3
 4001e10:	01400604 	movi	r5,24
 4001e14:	dd80a215 	stw	r22,648(sp)
 4001e18:	dc009c15 	stw	r16,624(sp)
 4001e1c:	dfc0a515 	stw	ra,660(sp)
 4001e20:	df00a415 	stw	fp,656(sp)
 4001e24:	ddc0a315 	stw	r23,652(sp)
 4001e28:	dd40a115 	stw	r21,644(sp)
 4001e2c:	dd00a015 	stw	r20,640(sp)
 4001e30:	dcc09f15 	stw	r19,636(sp)
 4001e34:	dc809e15 	stw	r18,632(sp)
 4001e38:	dc409d15 	stw	r17,628(sp)
 4001e3c:	3021883a 	mov	r16,r6
 4001e40:	d9c09315 	stw	r7,588(sp)
 4001e44:	15800017 	ldw	r22,0(r2)
 4001e48:	40031fc0 	call	40031fc <__divsi3>
 4001e4c:	da009317 	ldw	r8,588(sp)
 4001e50:	d8809215 	stw	r2,584(sp)
 4001e54:	423fffc4 	addi	r8,r8,-1
 4001e58:	da008d15 	stw	r8,564(sp)
 4001e5c:	10033b16 	blt	r2,zero,4002b4c <__kernel_rem_pio2+0xd64>
 4001e60:	da009217 	ldw	r8,584(sp)
 4001e64:	d9009217 	ldw	r4,584(sp)
 4001e68:	42000044 	addi	r8,r8,1
 4001e6c:	40fffa24 	muli	r3,r8,-24
 4001e70:	da009515 	stw	r8,596(sp)
 4001e74:	da008d17 	ldw	r8,564(sp)
 4001e78:	1c07883a 	add	r3,r3,r16
 4001e7c:	d8c09015 	stw	r3,576(sp)
 4001e80:	b205883a 	add	r2,r22,r8
 4001e84:	2223c83a 	sub	r17,r4,r8
 4001e88:	10001016 	blt	r2,zero,4001ecc <__kernel_rem_pio2+0xe4>
 4001e8c:	da00a717 	ldw	r8,668(sp)
 4001e90:	8c65883a 	add	r18,r17,r17
 4001e94:	94a5883a 	add	r18,r18,r18
 4001e98:	1445883a 	add	r2,r2,r17
 4001e9c:	dcc05004 	addi	r19,sp,320
 4001ea0:	44a5883a 	add	r18,r8,r18
 4001ea4:	14000044 	addi	r16,r2,1
 4001ea8:	88015316 	blt	r17,zero,40023f8 <__kernel_rem_pio2+0x610>
 4001eac:	91000017 	ldw	r4,0(r18)
 4001eb0:	40063cc0 	call	40063cc <__floatsidf>
 4001eb4:	98800015 	stw	r2,0(r19)
 4001eb8:	98c00115 	stw	r3,4(r19)
 4001ebc:	8c400044 	addi	r17,r17,1
 4001ec0:	9cc00204 	addi	r19,r19,8
 4001ec4:	94800104 	addi	r18,r18,4
 4001ec8:	8c3ff71e 	bne	r17,r16,4001ea8 <__ram_exceptions_end+0xfbfc1c60>
 4001ecc:	b0002816 	blt	r22,zero,4001f70 <__kernel_rem_pio2+0x188>
 4001ed0:	da008d17 	ldw	r8,564(sp)
 4001ed4:	b4c00044 	addi	r19,r22,1
 4001ed8:	982690fa 	slli	r19,r19,3
 4001edc:	402490fa 	slli	r18,r8,3
 4001ee0:	da008e17 	ldw	r8,568(sp)
 4001ee4:	d8805004 	addi	r2,sp,320
 4001ee8:	94000204 	addi	r16,r18,8
 4001eec:	d823883a 	mov	r17,sp
 4001ef0:	14a5883a 	add	r18,r2,r18
 4001ef4:	dcef883a 	add	r23,sp,r19
 4001ef8:	4421883a 	add	r16,r8,r16
 4001efc:	dd809115 	stw	r22,580(sp)
 4001f00:	4039883a 	mov	fp,r8
 4001f04:	da008d17 	ldw	r8,564(sp)
 4001f08:	40016016 	blt	r8,zero,400248c <__kernel_rem_pio2+0x6a4>
 4001f0c:	e027883a 	mov	r19,fp
 4001f10:	9029883a 	mov	r20,r18
 4001f14:	002d883a 	mov	r22,zero
 4001f18:	002b883a 	mov	r21,zero
 4001f1c:	a1800017 	ldw	r6,0(r20)
 4001f20:	a1c00117 	ldw	r7,4(r20)
 4001f24:	99000017 	ldw	r4,0(r19)
 4001f28:	99400117 	ldw	r5,4(r19)
 4001f2c:	9cc00204 	addi	r19,r19,8
 4001f30:	a53ffe04 	addi	r20,r20,-8
 4001f34:	40053380 	call	4005338 <__muldf3>
 4001f38:	b009883a 	mov	r4,r22
 4001f3c:	a80b883a 	mov	r5,r21
 4001f40:	100d883a 	mov	r6,r2
 4001f44:	180f883a 	mov	r7,r3
 4001f48:	40049280 	call	4004928 <__adddf3>
 4001f4c:	102d883a 	mov	r22,r2
 4001f50:	182b883a 	mov	r21,r3
 4001f54:	9c3ff11e 	bne	r19,r16,4001f1c <__ram_exceptions_end+0xfbfc1cd4>
 4001f58:	8d800015 	stw	r22,0(r17)
 4001f5c:	8d400115 	stw	r21,4(r17)
 4001f60:	8c400204 	addi	r17,r17,8
 4001f64:	94800204 	addi	r18,r18,8
 4001f68:	8dffe61e 	bne	r17,r23,4001f04 <__ram_exceptions_end+0xfbfc1cbc>
 4001f6c:	dd809117 	ldw	r22,580(sp)
 4001f70:	00d00034 	movhi	r3,16384
 4001f74:	da009317 	ldw	r8,588(sp)
 4001f78:	18ffff84 	addi	r3,r3,-2
 4001f7c:	b0c7883a 	add	r3,r22,r3
 4001f80:	18c7883a 	add	r3,r3,r3
 4001f84:	402090fa 	slli	r16,r8,3
 4001f88:	18c7883a 	add	r3,r3,r3
 4001f8c:	da007804 	addi	r8,sp,480
 4001f90:	40d1883a 	add	r8,r8,r3
 4001f94:	b0bfffc4 	addi	r2,r22,-1
 4001f98:	da009615 	stw	r8,600(sp)
 4001f9c:	da008e17 	ldw	r8,568(sp)
 4001fa0:	1085883a 	add	r2,r2,r2
 4001fa4:	1085883a 	add	r2,r2,r2
 4001fa8:	19000104 	addi	r4,r3,4
 4001fac:	d885883a 	add	r2,sp,r2
 4001fb0:	4421883a 	add	r16,r8,r16
 4001fb4:	da007804 	addi	r8,sp,480
 4001fb8:	4111883a 	add	r8,r8,r4
 4001fbc:	10807804 	addi	r2,r2,480
 4001fc0:	da009715 	stw	r8,604(sp)
 4001fc4:	b025883a 	mov	r18,r22
 4001fc8:	d8809815 	stw	r2,608(sp)
 4001fcc:	dd809415 	stw	r22,592(sp)
 4001fd0:	900490fa 	slli	r2,r18,3
 4001fd4:	d885883a 	add	r2,sp,r2
 4001fd8:	17000017 	ldw	fp,0(r2)
 4001fdc:	15400117 	ldw	r21,4(r2)
 4001fe0:	04802b0e 	bge	zero,r18,4002090 <__kernel_rem_pio2+0x2a8>
 4001fe4:	00880034 	movhi	r2,8192
 4001fe8:	10bfffc4 	addi	r2,r2,-1
 4001fec:	90a9883a 	add	r20,r18,r2
 4001ff0:	a02890fa 	slli	r20,r20,3
 4001ff4:	dc407804 	addi	r17,sp,480
 4001ff8:	dcfffe04 	addi	r19,sp,-8
 4001ffc:	dd29883a 	add	r20,sp,r20
 4002000:	000d883a 	mov	r6,zero
 4002004:	01cf9c34 	movhi	r7,15984
 4002008:	e009883a 	mov	r4,fp
 400200c:	a80b883a 	mov	r5,r21
 4002010:	40053380 	call	4005338 <__muldf3>
 4002014:	180b883a 	mov	r5,r3
 4002018:	1009883a 	mov	r4,r2
 400201c:	400634c0 	call	400634c <__fixdfsi>
 4002020:	1009883a 	mov	r4,r2
 4002024:	40063cc0 	call	40063cc <__floatsidf>
 4002028:	000d883a 	mov	r6,zero
 400202c:	01d05c34 	movhi	r7,16752
 4002030:	1009883a 	mov	r4,r2
 4002034:	180b883a 	mov	r5,r3
 4002038:	102f883a 	mov	r23,r2
 400203c:	182d883a 	mov	r22,r3
 4002040:	40053380 	call	4005338 <__muldf3>
 4002044:	100d883a 	mov	r6,r2
 4002048:	180f883a 	mov	r7,r3
 400204c:	e009883a 	mov	r4,fp
 4002050:	a80b883a 	mov	r5,r21
 4002054:	4005a500 	call	4005a50 <__subdf3>
 4002058:	180b883a 	mov	r5,r3
 400205c:	1009883a 	mov	r4,r2
 4002060:	400634c0 	call	400634c <__fixdfsi>
 4002064:	a1800017 	ldw	r6,0(r20)
 4002068:	a1c00117 	ldw	r7,4(r20)
 400206c:	88800015 	stw	r2,0(r17)
 4002070:	b809883a 	mov	r4,r23
 4002074:	b00b883a 	mov	r5,r22
 4002078:	40049280 	call	4004928 <__adddf3>
 400207c:	a53ffe04 	addi	r20,r20,-8
 4002080:	1039883a 	mov	fp,r2
 4002084:	182b883a 	mov	r21,r3
 4002088:	8c400104 	addi	r17,r17,4
 400208c:	a4ffdc1e 	bne	r20,r19,4002000 <__ram_exceptions_end+0xfbfc1db8>
 4002090:	d9809017 	ldw	r6,576(sp)
 4002094:	a80b883a 	mov	r5,r21
 4002098:	e009883a 	mov	r4,fp
 400209c:	40030440 	call	4003044 <scalbn>
 40020a0:	000d883a 	mov	r6,zero
 40020a4:	01cff034 	movhi	r7,16320
 40020a8:	1009883a 	mov	r4,r2
 40020ac:	180b883a 	mov	r5,r3
 40020b0:	1027883a 	mov	r19,r2
 40020b4:	1823883a 	mov	r17,r3
 40020b8:	40053380 	call	4005338 <__muldf3>
 40020bc:	1009883a 	mov	r4,r2
 40020c0:	180b883a 	mov	r5,r3
 40020c4:	4002e580 	call	4002e58 <floor>
 40020c8:	000d883a 	mov	r6,zero
 40020cc:	01d00834 	movhi	r7,16416
 40020d0:	1009883a 	mov	r4,r2
 40020d4:	180b883a 	mov	r5,r3
 40020d8:	40053380 	call	4005338 <__muldf3>
 40020dc:	100d883a 	mov	r6,r2
 40020e0:	180f883a 	mov	r7,r3
 40020e4:	9809883a 	mov	r4,r19
 40020e8:	880b883a 	mov	r5,r17
 40020ec:	4005a500 	call	4005a50 <__subdf3>
 40020f0:	180b883a 	mov	r5,r3
 40020f4:	1009883a 	mov	r4,r2
 40020f8:	1827883a 	mov	r19,r3
 40020fc:	1029883a 	mov	r20,r2
 4002100:	400634c0 	call	400634c <__fixdfsi>
 4002104:	1009883a 	mov	r4,r2
 4002108:	1023883a 	mov	r17,r2
 400210c:	40063cc0 	call	40063cc <__floatsidf>
 4002110:	a009883a 	mov	r4,r20
 4002114:	100d883a 	mov	r6,r2
 4002118:	180f883a 	mov	r7,r3
 400211c:	980b883a 	mov	r5,r19
 4002120:	4005a500 	call	4005a50 <__subdf3>
 4002124:	d9009017 	ldw	r4,576(sp)
 4002128:	1013883a 	mov	r9,r2
 400212c:	102b883a 	mov	r21,r2
 4002130:	1811883a 	mov	r8,r3
 4002134:	0100b30e 	bge	zero,r4,4002404 <__kernel_rem_pio2+0x61c>
 4002138:	90bfffc4 	addi	r2,r18,-1
 400213c:	1085883a 	add	r2,r2,r2
 4002140:	1085883a 	add	r2,r2,r2
 4002144:	d885883a 	add	r2,sp,r2
 4002148:	10807804 	addi	r2,r2,480
 400214c:	d9809017 	ldw	r6,576(sp)
 4002150:	11400017 	ldw	r5,0(r2)
 4002154:	01000604 	movi	r4,24
 4002158:	2189c83a 	sub	r4,r4,r6
 400215c:	290dd83a 	sra	r6,r5,r4
 4002160:	d9c09017 	ldw	r7,576(sp)
 4002164:	04c005c4 	movi	r19,23
 4002168:	3108983a 	sll	r4,r6,r4
 400216c:	99e7c83a 	sub	r19,r19,r7
 4002170:	89a3883a 	add	r17,r17,r6
 4002174:	2909c83a 	sub	r4,r5,r4
 4002178:	24e7d83a 	sra	r19,r4,r19
 400217c:	11000015 	stw	r4,0(r2)
 4002180:	04c02a0e 	bge	zero,r19,400222c <__kernel_rem_pio2+0x444>
 4002184:	8c400044 	addi	r17,r17,1
 4002188:	0481570e 	bge	zero,r18,40026e8 <__kernel_rem_pio2+0x900>
 400218c:	02804034 	movhi	r10,256
 4002190:	52bfffc4 	addi	r10,r10,-1
 4002194:	d8807804 	addi	r2,sp,480
 4002198:	000b883a 	mov	r5,zero
 400219c:	0029883a 	mov	r20,zero
 40021a0:	01c04034 	movhi	r7,256
 40021a4:	00000706 	br	40021c4 <__kernel_rem_pio2+0x3dc>
 40021a8:	390dc83a 	sub	r6,r7,r4
 40021ac:	20000226 	beq	r4,zero,40021b8 <__kernel_rem_pio2+0x3d0>
 40021b0:	11800015 	stw	r6,0(r2)
 40021b4:	05000044 	movi	r20,1
 40021b8:	29400044 	addi	r5,r5,1
 40021bc:	10800104 	addi	r2,r2,4
 40021c0:	2c80080e 	bge	r5,r18,40021e4 <__kernel_rem_pio2+0x3fc>
 40021c4:	11000017 	ldw	r4,0(r2)
 40021c8:	a03ff726 	beq	r20,zero,40021a8 <__ram_exceptions_end+0xfbfc1f60>
 40021cc:	5109c83a 	sub	r4,r10,r4
 40021d0:	11000015 	stw	r4,0(r2)
 40021d4:	29400044 	addi	r5,r5,1
 40021d8:	05000044 	movi	r20,1
 40021dc:	10800104 	addi	r2,r2,4
 40021e0:	2cbff816 	blt	r5,r18,40021c4 <__ram_exceptions_end+0xfbfc1f7c>
 40021e4:	d9009017 	ldw	r4,576(sp)
 40021e8:	01000e0e 	bge	zero,r4,4002224 <__kernel_rem_pio2+0x43c>
 40021ec:	00800044 	movi	r2,1
 40021f0:	20808d26 	beq	r4,r2,4002428 <__kernel_rem_pio2+0x640>
 40021f4:	00800084 	movi	r2,2
 40021f8:	20800a1e 	bne	r4,r2,4002224 <__kernel_rem_pio2+0x43c>
 40021fc:	90bfffc4 	addi	r2,r18,-1
 4002200:	1085883a 	add	r2,r2,r2
 4002204:	1085883a 	add	r2,r2,r2
 4002208:	d885883a 	add	r2,sp,r2
 400220c:	10807804 	addi	r2,r2,480
 4002210:	11400017 	ldw	r5,0(r2)
 4002214:	01001034 	movhi	r4,64
 4002218:	213fffc4 	addi	r4,r4,-1
 400221c:	2908703a 	and	r4,r5,r4
 4002220:	11000015 	stw	r4,0(r2)
 4002224:	00800084 	movi	r2,2
 4002228:	98805d26 	beq	r19,r2,40023a0 <__kernel_rem_pio2+0x5b8>
 400222c:	400b883a 	mov	r5,r8
 4002230:	000d883a 	mov	r6,zero
 4002234:	000f883a 	mov	r7,zero
 4002238:	a809883a 	mov	r4,r21
 400223c:	da009b15 	stw	r8,620(sp)
 4002240:	40051d40 	call	40051d4 <__eqdf2>
 4002244:	da009b17 	ldw	r8,620(sp)
 4002248:	10012b1e 	bne	r2,zero,40026f8 <__kernel_rem_pio2+0x910>
 400224c:	da009417 	ldw	r8,592(sp)
 4002250:	917fffc4 	addi	r5,r18,-1
 4002254:	2a000e16 	blt	r5,r8,4002290 <__kernel_rem_pio2+0x4a8>
 4002258:	00900034 	movhi	r2,16384
 400225c:	10bfffc4 	addi	r2,r2,-1
 4002260:	9085883a 	add	r2,r18,r2
 4002264:	1085883a 	add	r2,r2,r2
 4002268:	d9809717 	ldw	r6,604(sp)
 400226c:	1085883a 	add	r2,r2,r2
 4002270:	d9007804 	addi	r4,sp,480
 4002274:	0007883a 	mov	r3,zero
 4002278:	2085883a 	add	r2,r4,r2
 400227c:	11000017 	ldw	r4,0(r2)
 4002280:	10bfff04 	addi	r2,r2,-4
 4002284:	1906b03a 	or	r3,r3,r4
 4002288:	11bffc1e 	bne	r2,r6,400227c <__ram_exceptions_end+0xfbfc2034>
 400228c:	1800821e 	bne	r3,zero,4002498 <__kernel_rem_pio2+0x6b0>
 4002290:	da009817 	ldw	r8,608(sp)
 4002294:	40800017 	ldw	r2,0(r8)
 4002298:	1001151e 	bne	r2,zero,40026f0 <__kernel_rem_pio2+0x908>
 400229c:	d8809617 	ldw	r2,600(sp)
 40022a0:	05000044 	movi	r20,1
 40022a4:	10bfff04 	addi	r2,r2,-4
 40022a8:	10c00117 	ldw	r3,4(r2)
 40022ac:	a5000044 	addi	r20,r20,1
 40022b0:	183ffc26 	beq	r3,zero,40022a4 <__ram_exceptions_end+0xfbfc205c>
 40022b4:	9529883a 	add	r20,r18,r20
 40022b8:	90800044 	addi	r2,r18,1
 40022bc:	dd009115 	stw	r20,580(sp)
 40022c0:	a0803216 	blt	r20,r2,400238c <__kernel_rem_pio2+0x5a4>
 40022c4:	da009317 	ldw	r8,588(sp)
 40022c8:	d8c09117 	ldw	r3,580(sp)
 40022cc:	44a3883a 	add	r17,r8,r18
 40022d0:	da009217 	ldw	r8,584(sp)
 40022d4:	882290fa 	slli	r17,r17,3
 40022d8:	40a5883a 	add	r18,r8,r2
 40022dc:	da009517 	ldw	r8,596(sp)
 40022e0:	100490fa 	slli	r2,r2,3
 40022e4:	94a5883a 	add	r18,r18,r18
 40022e8:	40eb883a 	add	r21,r8,r3
 40022ec:	da00a717 	ldw	r8,668(sp)
 40022f0:	ad6b883a 	add	r21,r21,r21
 40022f4:	94a5883a 	add	r18,r18,r18
 40022f8:	ad6b883a 	add	r21,r21,r21
 40022fc:	d8c05004 	addi	r3,sp,320
 4002300:	44a5883a 	add	r18,r8,r18
 4002304:	1c63883a 	add	r17,r3,r17
 4002308:	d8a7883a 	add	r19,sp,r2
 400230c:	456b883a 	add	r21,r8,r21
 4002310:	91000017 	ldw	r4,0(r18)
 4002314:	40063cc0 	call	40063cc <__floatsidf>
 4002318:	da008d17 	ldw	r8,564(sp)
 400231c:	88800015 	stw	r2,0(r17)
 4002320:	88c00115 	stw	r3,4(r17)
 4002324:	40001b16 	blt	r8,zero,4002394 <__kernel_rem_pio2+0x5ac>
 4002328:	dd008e17 	ldw	r20,568(sp)
 400232c:	882d883a 	mov	r22,r17
 4002330:	002f883a 	mov	r23,zero
 4002334:	0039883a 	mov	fp,zero
 4002338:	b1800017 	ldw	r6,0(r22)
 400233c:	b1c00117 	ldw	r7,4(r22)
 4002340:	a1000017 	ldw	r4,0(r20)
 4002344:	a1400117 	ldw	r5,4(r20)
 4002348:	a5000204 	addi	r20,r20,8
 400234c:	b5bffe04 	addi	r22,r22,-8
 4002350:	40053380 	call	4005338 <__muldf3>
 4002354:	b809883a 	mov	r4,r23
 4002358:	e00b883a 	mov	r5,fp
 400235c:	100d883a 	mov	r6,r2
 4002360:	180f883a 	mov	r7,r3
 4002364:	40049280 	call	4004928 <__adddf3>
 4002368:	102f883a 	mov	r23,r2
 400236c:	1839883a 	mov	fp,r3
 4002370:	a43ff11e 	bne	r20,r16,4002338 <__ram_exceptions_end+0xfbfc20f0>
 4002374:	9dc00015 	stw	r23,0(r19)
 4002378:	9f000115 	stw	fp,4(r19)
 400237c:	94800104 	addi	r18,r18,4
 4002380:	8c400204 	addi	r17,r17,8
 4002384:	9cc00204 	addi	r19,r19,8
 4002388:	957fe11e 	bne	r18,r21,4002310 <__ram_exceptions_end+0xfbfc20c8>
 400238c:	dc809117 	ldw	r18,580(sp)
 4002390:	003f0f06 	br	4001fd0 <__ram_exceptions_end+0xfbfc1d88>
 4002394:	002f883a 	mov	r23,zero
 4002398:	0039883a 	mov	fp,zero
 400239c:	003ff506 	br	4002374 <__ram_exceptions_end+0xfbfc212c>
 40023a0:	480d883a 	mov	r6,r9
 40023a4:	180f883a 	mov	r7,r3
 40023a8:	0009883a 	mov	r4,zero
 40023ac:	014ffc34 	movhi	r5,16368
 40023b0:	4005a500 	call	4005a50 <__subdf3>
 40023b4:	102b883a 	mov	r21,r2
 40023b8:	1811883a 	mov	r8,r3
 40023bc:	a03f9b26 	beq	r20,zero,400222c <__ram_exceptions_end+0xfbfc1fe4>
 40023c0:	d9809017 	ldw	r6,576(sp)
 40023c4:	0009883a 	mov	r4,zero
 40023c8:	014ffc34 	movhi	r5,16368
 40023cc:	d8c09b15 	stw	r3,620(sp)
 40023d0:	40030440 	call	4003044 <scalbn>
 40023d4:	da009b17 	ldw	r8,620(sp)
 40023d8:	a809883a 	mov	r4,r21
 40023dc:	100d883a 	mov	r6,r2
 40023e0:	400b883a 	mov	r5,r8
 40023e4:	180f883a 	mov	r7,r3
 40023e8:	4005a500 	call	4005a50 <__subdf3>
 40023ec:	102b883a 	mov	r21,r2
 40023f0:	1811883a 	mov	r8,r3
 40023f4:	003f8d06 	br	400222c <__ram_exceptions_end+0xfbfc1fe4>
 40023f8:	0005883a 	mov	r2,zero
 40023fc:	0007883a 	mov	r3,zero
 4002400:	003eac06 	br	4001eb4 <__ram_exceptions_end+0xfbfc1c6c>
 4002404:	d8809017 	ldw	r2,576(sp)
 4002408:	1000121e 	bne	r2,zero,4002454 <__kernel_rem_pio2+0x66c>
 400240c:	90bfffc4 	addi	r2,r18,-1
 4002410:	1085883a 	add	r2,r2,r2
 4002414:	1085883a 	add	r2,r2,r2
 4002418:	d885883a 	add	r2,sp,r2
 400241c:	14c07817 	ldw	r19,480(r2)
 4002420:	9827d5fa 	srai	r19,r19,23
 4002424:	003f5606 	br	4002180 <__ram_exceptions_end+0xfbfc1f38>
 4002428:	90bfffc4 	addi	r2,r18,-1
 400242c:	1085883a 	add	r2,r2,r2
 4002430:	1085883a 	add	r2,r2,r2
 4002434:	d885883a 	add	r2,sp,r2
 4002438:	10807804 	addi	r2,r2,480
 400243c:	11000017 	ldw	r4,0(r2)
 4002440:	01402034 	movhi	r5,128
 4002444:	297fffc4 	addi	r5,r5,-1
 4002448:	2148703a 	and	r4,r4,r5
 400244c:	11000015 	stw	r4,0(r2)
 4002450:	003f7406 	br	4002224 <__ram_exceptions_end+0xfbfc1fdc>
 4002454:	4809883a 	mov	r4,r9
 4002458:	180b883a 	mov	r5,r3
 400245c:	000d883a 	mov	r6,zero
 4002460:	01cff834 	movhi	r7,16352
 4002464:	d8c09a15 	stw	r3,616(sp)
 4002468:	d8c09b15 	stw	r3,620(sp)
 400246c:	da409915 	stw	r9,612(sp)
 4002470:	400525c0 	call	400525c <__gedf2>
 4002474:	d8c09a17 	ldw	r3,616(sp)
 4002478:	da009b17 	ldw	r8,620(sp)
 400247c:	da409917 	ldw	r9,612(sp)
 4002480:	1000920e 	bge	r2,zero,40026cc <__kernel_rem_pio2+0x8e4>
 4002484:	0027883a 	mov	r19,zero
 4002488:	003f6806 	br	400222c <__ram_exceptions_end+0xfbfc1fe4>
 400248c:	002d883a 	mov	r22,zero
 4002490:	002b883a 	mov	r21,zero
 4002494:	003eb006 	br	4001f58 <__ram_exceptions_end+0xfbfc1d10>
 4002498:	2945883a 	add	r2,r5,r5
 400249c:	da009017 	ldw	r8,576(sp)
 40024a0:	1085883a 	add	r2,r2,r2
 40024a4:	d885883a 	add	r2,sp,r2
 40024a8:	10807817 	ldw	r2,480(r2)
 40024ac:	423ffa04 	addi	r8,r8,-24
 40024b0:	dc409115 	stw	r17,580(sp)
 40024b4:	dcc08d15 	stw	r19,564(sp)
 40024b8:	da009015 	stw	r8,576(sp)
 40024bc:	dd809417 	ldw	r22,592(sp)
 40024c0:	2823883a 	mov	r17,r5
 40024c4:	10000e1e 	bne	r2,zero,4002500 <__kernel_rem_pio2+0x718>
 40024c8:	00900034 	movhi	r2,16384
 40024cc:	10bfffc4 	addi	r2,r2,-1
 40024d0:	2885883a 	add	r2,r5,r2
 40024d4:	1085883a 	add	r2,r2,r2
 40024d8:	d8c07804 	addi	r3,sp,480
 40024dc:	1085883a 	add	r2,r2,r2
 40024e0:	1885883a 	add	r2,r3,r2
 40024e4:	4007883a 	mov	r3,r8
 40024e8:	10bfff04 	addi	r2,r2,-4
 40024ec:	11000117 	ldw	r4,4(r2)
 40024f0:	8c7fffc4 	addi	r17,r17,-1
 40024f4:	18fffa04 	addi	r3,r3,-24
 40024f8:	203ffb26 	beq	r4,zero,40024e8 <__ram_exceptions_end+0xfbfc22a0>
 40024fc:	d8c09015 	stw	r3,576(sp)
 4002500:	d9809017 	ldw	r6,576(sp)
 4002504:	0009883a 	mov	r4,zero
 4002508:	014ffc34 	movhi	r5,16368
 400250c:	40030440 	call	4003044 <scalbn>
 4002510:	1029883a 	mov	r20,r2
 4002514:	182b883a 	mov	r21,r3
 4002518:	88018416 	blt	r17,zero,4002b2c <__kernel_rem_pio2+0xd44>
 400251c:	881090fa 	slli	r8,r17,3
 4002520:	d8c07804 	addi	r3,sp,480
 4002524:	da008e15 	stw	r8,568(sp)
 4002528:	d8808e17 	ldw	r2,568(sp)
 400252c:	8c51883a 	add	r8,r17,r17
 4002530:	4211883a 	add	r8,r8,r8
 4002534:	d8a1883a 	add	r16,sp,r2
 4002538:	1a25883a 	add	r18,r3,r8
 400253c:	da3ffe04 	addi	r8,sp,-8
 4002540:	da008c15 	stw	r8,560(sp)
 4002544:	8039883a 	mov	fp,r16
 4002548:	91000017 	ldw	r4,0(r18)
 400254c:	e73ffe04 	addi	fp,fp,-8
 4002550:	94bfff04 	addi	r18,r18,-4
 4002554:	40063cc0 	call	40063cc <__floatsidf>
 4002558:	a00d883a 	mov	r6,r20
 400255c:	a80f883a 	mov	r7,r21
 4002560:	1009883a 	mov	r4,r2
 4002564:	180b883a 	mov	r5,r3
 4002568:	40053380 	call	4005338 <__muldf3>
 400256c:	a009883a 	mov	r4,r20
 4002570:	a80b883a 	mov	r5,r21
 4002574:	e0800215 	stw	r2,8(fp)
 4002578:	e0c00315 	stw	r3,12(fp)
 400257c:	000d883a 	mov	r6,zero
 4002580:	01cf9c34 	movhi	r7,15984
 4002584:	40053380 	call	4005338 <__muldf3>
 4002588:	da008c17 	ldw	r8,560(sp)
 400258c:	1029883a 	mov	r20,r2
 4002590:	182b883a 	mov	r21,r3
 4002594:	e23fec1e 	bne	fp,r8,4002548 <__ram_exceptions_end+0xfbfc2300>
 4002598:	0029883a 	mov	r20,zero
 400259c:	b0004f16 	blt	r22,zero,40026dc <__kernel_rem_pio2+0x8f4>
 40025a0:	05410074 	movhi	r21,1025
 40025a4:	014ffe74 	movhi	r5,16377
 40025a8:	ad678404 	addi	r21,r21,-25072
 40025ac:	8027883a 	mov	r19,r16
 40025b0:	01100034 	movhi	r4,16384
 40025b4:	29487ec4 	addi	r5,r5,8699
 40025b8:	0039883a 	mov	fp,zero
 40025bc:	002f883a 	mov	r23,zero
 40025c0:	0025883a 	mov	r18,zero
 40025c4:	00000506 	br	40025dc <__kernel_rem_pio2+0x7f4>
 40025c8:	9cc00204 	addi	r19,r19,8
 40025cc:	a4800f16 	blt	r20,r18,400260c <__kernel_rem_pio2+0x824>
 40025d0:	a9000017 	ldw	r4,0(r21)
 40025d4:	a9400117 	ldw	r5,4(r21)
 40025d8:	ad400204 	addi	r21,r21,8
 40025dc:	99800017 	ldw	r6,0(r19)
 40025e0:	99c00117 	ldw	r7,4(r19)
 40025e4:	94800044 	addi	r18,r18,1
 40025e8:	40053380 	call	4005338 <__muldf3>
 40025ec:	e009883a 	mov	r4,fp
 40025f0:	b80b883a 	mov	r5,r23
 40025f4:	100d883a 	mov	r6,r2
 40025f8:	180f883a 	mov	r7,r3
 40025fc:	40049280 	call	4004928 <__adddf3>
 4002600:	1039883a 	mov	fp,r2
 4002604:	182f883a 	mov	r23,r3
 4002608:	b4bfef0e 	bge	r22,r18,40025c8 <__ram_exceptions_end+0xfbfc2380>
 400260c:	a00490fa 	slli	r2,r20,3
 4002610:	da008c17 	ldw	r8,560(sp)
 4002614:	843ffe04 	addi	r16,r16,-8
 4002618:	d885883a 	add	r2,sp,r2
 400261c:	10802804 	addi	r2,r2,160
 4002620:	17000015 	stw	fp,0(r2)
 4002624:	15c00115 	stw	r23,4(r2)
 4002628:	a5000044 	addi	r20,r20,1
 400262c:	823fdb1e 	bne	r16,r8,400259c <__ram_exceptions_end+0xfbfc2354>
 4002630:	da00a617 	ldw	r8,664(sp)
 4002634:	00800084 	movi	r2,2
 4002638:	12006616 	blt	r2,r8,40027d4 <__kernel_rem_pio2+0x9ec>
 400263c:	0200de16 	blt	zero,r8,40029b8 <__kernel_rem_pio2+0xbd0>
 4002640:	4000141e 	bne	r8,zero,4002694 <__kernel_rem_pio2+0x8ac>
 4002644:	da008e17 	ldw	r8,568(sp)
 4002648:	d8802804 	addi	r2,sp,160
 400264c:	0007883a 	mov	r3,zero
 4002650:	1225883a 	add	r18,r2,r8
 4002654:	043fffc4 	movi	r16,-1
 4002658:	0005883a 	mov	r2,zero
 400265c:	91800017 	ldw	r6,0(r18)
 4002660:	91c00117 	ldw	r7,4(r18)
 4002664:	1009883a 	mov	r4,r2
 4002668:	180b883a 	mov	r5,r3
 400266c:	8c7fffc4 	addi	r17,r17,-1
 4002670:	40049280 	call	4004928 <__adddf3>
 4002674:	94bffe04 	addi	r18,r18,-8
 4002678:	8c3ff81e 	bne	r17,r16,400265c <__ram_exceptions_end+0xfbfc2414>
 400267c:	da008d17 	ldw	r8,564(sp)
 4002680:	40000126 	beq	r8,zero,4002688 <__kernel_rem_pio2+0x8a0>
 4002684:	18e0003c 	xorhi	r3,r3,32768
 4002688:	da008f17 	ldw	r8,572(sp)
 400268c:	40800015 	stw	r2,0(r8)
 4002690:	40c00115 	stw	r3,4(r8)
 4002694:	da009117 	ldw	r8,580(sp)
 4002698:	408001cc 	andi	r2,r8,7
 400269c:	dfc0a517 	ldw	ra,660(sp)
 40026a0:	df00a417 	ldw	fp,656(sp)
 40026a4:	ddc0a317 	ldw	r23,652(sp)
 40026a8:	dd80a217 	ldw	r22,648(sp)
 40026ac:	dd40a117 	ldw	r21,644(sp)
 40026b0:	dd00a017 	ldw	r20,640(sp)
 40026b4:	dcc09f17 	ldw	r19,636(sp)
 40026b8:	dc809e17 	ldw	r18,632(sp)
 40026bc:	dc409d17 	ldw	r17,628(sp)
 40026c0:	dc009c17 	ldw	r16,624(sp)
 40026c4:	dec0a604 	addi	sp,sp,664
 40026c8:	f800283a 	ret
 40026cc:	8c400044 	addi	r17,r17,1
 40026d0:	04810d0e 	bge	zero,r18,4002b08 <__kernel_rem_pio2+0xd20>
 40026d4:	04c00084 	movi	r19,2
 40026d8:	003eac06 	br	400218c <__ram_exceptions_end+0xfbfc1f44>
 40026dc:	0039883a 	mov	fp,zero
 40026e0:	002f883a 	mov	r23,zero
 40026e4:	003fc906 	br	400260c <__ram_exceptions_end+0xfbfc23c4>
 40026e8:	0029883a 	mov	r20,zero
 40026ec:	003ebd06 	br	40021e4 <__ram_exceptions_end+0xfbfc1f9c>
 40026f0:	05000044 	movi	r20,1
 40026f4:	003eef06 	br	40022b4 <__ram_exceptions_end+0xfbfc206c>
 40026f8:	4029883a 	mov	r20,r8
 40026fc:	da009017 	ldw	r8,576(sp)
 4002700:	a809883a 	mov	r4,r21
 4002704:	a00b883a 	mov	r5,r20
 4002708:	020dc83a 	sub	r6,zero,r8
 400270c:	dc409115 	stw	r17,580(sp)
 4002710:	dd809417 	ldw	r22,592(sp)
 4002714:	dcc08d15 	stw	r19,564(sp)
 4002718:	40030440 	call	4003044 <scalbn>
 400271c:	000d883a 	mov	r6,zero
 4002720:	01d05c34 	movhi	r7,16752
 4002724:	1009883a 	mov	r4,r2
 4002728:	180b883a 	mov	r5,r3
 400272c:	102b883a 	mov	r21,r2
 4002730:	1823883a 	mov	r17,r3
 4002734:	400525c0 	call	400525c <__gedf2>
 4002738:	1000e916 	blt	r2,zero,4002ae0 <__kernel_rem_pio2+0xcf8>
 400273c:	000d883a 	mov	r6,zero
 4002740:	01cf9c34 	movhi	r7,15984
 4002744:	880b883a 	mov	r5,r17
 4002748:	a809883a 	mov	r4,r21
 400274c:	40053380 	call	4005338 <__muldf3>
 4002750:	180b883a 	mov	r5,r3
 4002754:	1009883a 	mov	r4,r2
 4002758:	400634c0 	call	400634c <__fixdfsi>
 400275c:	1029883a 	mov	r20,r2
 4002760:	9485883a 	add	r2,r18,r18
 4002764:	1085883a 	add	r2,r2,r2
 4002768:	a009883a 	mov	r4,r20
 400276c:	d8a1883a 	add	r16,sp,r2
 4002770:	40063cc0 	call	40063cc <__floatsidf>
 4002774:	000d883a 	mov	r6,zero
 4002778:	01d05c34 	movhi	r7,16752
 400277c:	1009883a 	mov	r4,r2
 4002780:	180b883a 	mov	r5,r3
 4002784:	40053380 	call	4005338 <__muldf3>
 4002788:	880b883a 	mov	r5,r17
 400278c:	100d883a 	mov	r6,r2
 4002790:	180f883a 	mov	r7,r3
 4002794:	a809883a 	mov	r4,r21
 4002798:	4005a500 	call	4005a50 <__subdf3>
 400279c:	180b883a 	mov	r5,r3
 40027a0:	1009883a 	mov	r4,r2
 40027a4:	400634c0 	call	400634c <__fixdfsi>
 40027a8:	da009017 	ldw	r8,576(sp)
 40027ac:	94400044 	addi	r17,r18,1
 40027b0:	8c47883a 	add	r3,r17,r17
 40027b4:	84007804 	addi	r16,r16,480
 40027b8:	18c7883a 	add	r3,r3,r3
 40027bc:	80800015 	stw	r2,0(r16)
 40027c0:	d8c7883a 	add	r3,sp,r3
 40027c4:	42000604 	addi	r8,r8,24
 40027c8:	da009015 	stw	r8,576(sp)
 40027cc:	1d007815 	stw	r20,480(r3)
 40027d0:	003f4b06 	br	4002500 <__ram_exceptions_end+0xfbfc22b8>
 40027d4:	da00a617 	ldw	r8,664(sp)
 40027d8:	008000c4 	movi	r2,3
 40027dc:	40bfad1e 	bne	r8,r2,4002694 <__ram_exceptions_end+0xfbfc244c>
 40027e0:	0440bc0e 	bge	zero,r17,4002ad4 <__kernel_rem_pio2+0xcec>
 40027e4:	da008e17 	ldw	r8,568(sp)
 40027e8:	882090fa 	slli	r16,r17,3
 40027ec:	dd402804 	addi	r21,sp,160
 40027f0:	da05883a 	add	r2,sp,r8
 40027f4:	10802804 	addi	r2,r2,160
 40027f8:	15c00017 	ldw	r23,0(r2)
 40027fc:	15800117 	ldw	r22,4(r2)
 4002800:	8029883a 	mov	r20,r16
 4002804:	843ffe04 	addi	r16,r16,-8
 4002808:	ac21883a 	add	r16,r21,r16
 400280c:	ad29883a 	add	r20,r21,r20
 4002810:	dac02604 	addi	r11,sp,152
 4002814:	8811883a 	mov	r8,r17
 4002818:	84400017 	ldw	r17,0(r16)
 400281c:	87000117 	ldw	fp,4(r16)
 4002820:	b80d883a 	mov	r6,r23
 4002824:	b00f883a 	mov	r7,r22
 4002828:	8809883a 	mov	r4,r17
 400282c:	e00b883a 	mov	r5,fp
 4002830:	da009b15 	stw	r8,620(sp)
 4002834:	dac09915 	stw	r11,612(sp)
 4002838:	40049280 	call	4004928 <__adddf3>
 400283c:	100d883a 	mov	r6,r2
 4002840:	180f883a 	mov	r7,r3
 4002844:	8809883a 	mov	r4,r17
 4002848:	e00b883a 	mov	r5,fp
 400284c:	1027883a 	mov	r19,r2
 4002850:	1825883a 	mov	r18,r3
 4002854:	4005a500 	call	4005a50 <__subdf3>
 4002858:	b80d883a 	mov	r6,r23
 400285c:	b00f883a 	mov	r7,r22
 4002860:	1009883a 	mov	r4,r2
 4002864:	180b883a 	mov	r5,r3
 4002868:	40049280 	call	4004928 <__adddf3>
 400286c:	dac09917 	ldw	r11,612(sp)
 4002870:	a0800015 	stw	r2,0(r20)
 4002874:	a0c00115 	stw	r3,4(r20)
 4002878:	84c00015 	stw	r19,0(r16)
 400287c:	84800115 	stw	r18,4(r16)
 4002880:	843ffe04 	addi	r16,r16,-8
 4002884:	a53ffe04 	addi	r20,r20,-8
 4002888:	982f883a 	mov	r23,r19
 400288c:	902d883a 	mov	r22,r18
 4002890:	da009b17 	ldw	r8,620(sp)
 4002894:	5c3fe01e 	bne	r11,r16,4002818 <__ram_exceptions_end+0xfbfc25d0>
 4002898:	00800044 	movi	r2,1
 400289c:	12008d0e 	bge	r2,r8,4002ad4 <__kernel_rem_pio2+0xcec>
 40028a0:	402090fa 	slli	r16,r8,3
 40028a4:	da008e17 	ldw	r8,568(sp)
 40028a8:	8023883a 	mov	r17,r16
 40028ac:	da05883a 	add	r2,sp,r8
 40028b0:	10802804 	addi	r2,r2,160
 40028b4:	15800017 	ldw	r22,0(r2)
 40028b8:	15000117 	ldw	r20,4(r2)
 40028bc:	ac63883a 	add	r17,r21,r17
 40028c0:	843ffe04 	addi	r16,r16,-8
 40028c4:	ac21883a 	add	r16,r21,r16
 40028c8:	8825883a 	mov	r18,r17
 40028cc:	8811883a 	mov	r8,r17
 40028d0:	84400017 	ldw	r17,0(r16)
 40028d4:	87000117 	ldw	fp,4(r16)
 40028d8:	b009883a 	mov	r4,r22
 40028dc:	a00b883a 	mov	r5,r20
 40028e0:	880d883a 	mov	r6,r17
 40028e4:	e00f883a 	mov	r7,fp
 40028e8:	da009b15 	stw	r8,620(sp)
 40028ec:	40049280 	call	4004928 <__adddf3>
 40028f0:	100d883a 	mov	r6,r2
 40028f4:	180f883a 	mov	r7,r3
 40028f8:	8809883a 	mov	r4,r17
 40028fc:	e00b883a 	mov	r5,fp
 4002900:	102f883a 	mov	r23,r2
 4002904:	1827883a 	mov	r19,r3
 4002908:	4005a500 	call	4005a50 <__subdf3>
 400290c:	b00d883a 	mov	r6,r22
 4002910:	a00f883a 	mov	r7,r20
 4002914:	1009883a 	mov	r4,r2
 4002918:	180b883a 	mov	r5,r3
 400291c:	40049280 	call	4004928 <__adddf3>
 4002920:	90800015 	stw	r2,0(r18)
 4002924:	90c00115 	stw	r3,4(r18)
 4002928:	85c00015 	stw	r23,0(r16)
 400292c:	84c00115 	stw	r19,4(r16)
 4002930:	843ffe04 	addi	r16,r16,-8
 4002934:	94bffe04 	addi	r18,r18,-8
 4002938:	b82d883a 	mov	r22,r23
 400293c:	9829883a 	mov	r20,r19
 4002940:	da009b17 	ldw	r8,620(sp)
 4002944:	ac3fe21e 	bne	r21,r16,40028d0 <__ram_exceptions_end+0xfbfc2688>
 4002948:	4023883a 	mov	r17,r8
 400294c:	dc002a04 	addi	r16,sp,168
 4002950:	0005883a 	mov	r2,zero
 4002954:	0007883a 	mov	r3,zero
 4002958:	89800017 	ldw	r6,0(r17)
 400295c:	89c00117 	ldw	r7,4(r17)
 4002960:	1009883a 	mov	r4,r2
 4002964:	8c7ffe04 	addi	r17,r17,-8
 4002968:	180b883a 	mov	r5,r3
 400296c:	40049280 	call	4004928 <__adddf3>
 4002970:	847ff91e 	bne	r16,r17,4002958 <__ram_exceptions_end+0xfbfc2710>
 4002974:	da008d17 	ldw	r8,564(sp)
 4002978:	40004726 	beq	r8,zero,4002a98 <__kernel_rem_pio2+0xcb0>
 400297c:	d9002b17 	ldw	r4,172(sp)
 4002980:	d9402917 	ldw	r5,164(sp)
 4002984:	d9802a17 	ldw	r6,168(sp)
 4002988:	da008f17 	ldw	r8,572(sp)
 400298c:	d9c02817 	ldw	r7,160(sp)
 4002990:	2960003c 	xorhi	r5,r5,32768
 4002994:	2120003c 	xorhi	r4,r4,32768
 4002998:	18e0003c 	xorhi	r3,r3,32768
 400299c:	41c00015 	stw	r7,0(r8)
 40029a0:	41400115 	stw	r5,4(r8)
 40029a4:	41800215 	stw	r6,8(r8)
 40029a8:	41000315 	stw	r4,12(r8)
 40029ac:	40800415 	stw	r2,16(r8)
 40029b0:	40c00515 	stw	r3,20(r8)
 40029b4:	003f3706 	br	4002694 <__ram_exceptions_end+0xfbfc244c>
 40029b8:	da008e17 	ldw	r8,568(sp)
 40029bc:	d8802804 	addi	r2,sp,160
 40029c0:	dc002604 	addi	r16,sp,152
 40029c4:	1225883a 	add	r18,r2,r8
 40029c8:	0007883a 	mov	r3,zero
 40029cc:	0005883a 	mov	r2,zero
 40029d0:	91800017 	ldw	r6,0(r18)
 40029d4:	91c00117 	ldw	r7,4(r18)
 40029d8:	1009883a 	mov	r4,r2
 40029dc:	94bffe04 	addi	r18,r18,-8
 40029e0:	180b883a 	mov	r5,r3
 40029e4:	40049280 	call	4004928 <__adddf3>
 40029e8:	943ff91e 	bne	r18,r16,40029d0 <__ram_exceptions_end+0xfbfc2788>
 40029ec:	da008d17 	ldw	r8,564(sp)
 40029f0:	d9002817 	ldw	r4,160(sp)
 40029f4:	d9402917 	ldw	r5,164(sp)
 40029f8:	40001a26 	beq	r8,zero,4002a64 <__kernel_rem_pio2+0xc7c>
 40029fc:	da008f17 	ldw	r8,572(sp)
 4002a00:	19a0003c 	xorhi	r6,r3,32768
 4002a04:	180f883a 	mov	r7,r3
 4002a08:	41800115 	stw	r6,4(r8)
 4002a0c:	40800015 	stw	r2,0(r8)
 4002a10:	100d883a 	mov	r6,r2
 4002a14:	4005a500 	call	4005a50 <__subdf3>
 4002a18:	04400c0e 	bge	zero,r17,4002a4c <__kernel_rem_pio2+0xc64>
 4002a1c:	dc002a04 	addi	r16,sp,168
 4002a20:	04800044 	movi	r18,1
 4002a24:	81800017 	ldw	r6,0(r16)
 4002a28:	81c00117 	ldw	r7,4(r16)
 4002a2c:	1009883a 	mov	r4,r2
 4002a30:	180b883a 	mov	r5,r3
 4002a34:	94800044 	addi	r18,r18,1
 4002a38:	40049280 	call	4004928 <__adddf3>
 4002a3c:	84000204 	addi	r16,r16,8
 4002a40:	8cbff80e 	bge	r17,r18,4002a24 <__ram_exceptions_end+0xfbfc27dc>
 4002a44:	da008d17 	ldw	r8,564(sp)
 4002a48:	40004226 	beq	r8,zero,4002b54 <__kernel_rem_pio2+0xd6c>
 4002a4c:	da008f17 	ldw	r8,572(sp)
 4002a50:	1009883a 	mov	r4,r2
 4002a54:	18a0003c 	xorhi	r2,r3,32768
 4002a58:	41000215 	stw	r4,8(r8)
 4002a5c:	40800315 	stw	r2,12(r8)
 4002a60:	003f0c06 	br	4002694 <__ram_exceptions_end+0xfbfc244c>
 4002a64:	da008f17 	ldw	r8,572(sp)
 4002a68:	100d883a 	mov	r6,r2
 4002a6c:	180f883a 	mov	r7,r3
 4002a70:	40800015 	stw	r2,0(r8)
 4002a74:	40c00115 	stw	r3,4(r8)
 4002a78:	4005a500 	call	4005a50 <__subdf3>
 4002a7c:	047fe716 	blt	zero,r17,4002a1c <__ram_exceptions_end+0xfbfc27d4>
 4002a80:	da008f17 	ldw	r8,572(sp)
 4002a84:	1009883a 	mov	r4,r2
 4002a88:	1805883a 	mov	r2,r3
 4002a8c:	41000215 	stw	r4,8(r8)
 4002a90:	40800315 	stw	r2,12(r8)
 4002a94:	003eff06 	br	4002694 <__ram_exceptions_end+0xfbfc244c>
 4002a98:	da008f17 	ldw	r8,572(sp)
 4002a9c:	d9802817 	ldw	r6,160(sp)
 4002aa0:	d9402a17 	ldw	r5,168(sp)
 4002aa4:	d9002b17 	ldw	r4,172(sp)
 4002aa8:	41800015 	stw	r6,0(r8)
 4002aac:	d9802917 	ldw	r6,164(sp)
 4002ab0:	41400215 	stw	r5,8(r8)
 4002ab4:	41000315 	stw	r4,12(r8)
 4002ab8:	41800115 	stw	r6,4(r8)
 4002abc:	40800415 	stw	r2,16(r8)
 4002ac0:	40c00515 	stw	r3,20(r8)
 4002ac4:	003ef306 	br	4002694 <__ram_exceptions_end+0xfbfc244c>
 4002ac8:	da00a617 	ldw	r8,664(sp)
 4002acc:	008000c4 	movi	r2,3
 4002ad0:	40bef01e 	bne	r8,r2,4002694 <__ram_exceptions_end+0xfbfc244c>
 4002ad4:	0005883a 	mov	r2,zero
 4002ad8:	0007883a 	mov	r3,zero
 4002adc:	003fa506 	br	4002974 <__ram_exceptions_end+0xfbfc272c>
 4002ae0:	9485883a 	add	r2,r18,r18
 4002ae4:	1085883a 	add	r2,r2,r2
 4002ae8:	d8a1883a 	add	r16,sp,r2
 4002aec:	880b883a 	mov	r5,r17
 4002af0:	a809883a 	mov	r4,r21
 4002af4:	84007804 	addi	r16,r16,480
 4002af8:	400634c0 	call	400634c <__fixdfsi>
 4002afc:	80800015 	stw	r2,0(r16)
 4002b00:	9023883a 	mov	r17,r18
 4002b04:	003e7e06 	br	4002500 <__ram_exceptions_end+0xfbfc22b8>
 4002b08:	a80d883a 	mov	r6,r21
 4002b0c:	400f883a 	mov	r7,r8
 4002b10:	0009883a 	mov	r4,zero
 4002b14:	014ffc34 	movhi	r5,16368
 4002b18:	4005a500 	call	4005a50 <__subdf3>
 4002b1c:	102b883a 	mov	r21,r2
 4002b20:	1811883a 	mov	r8,r3
 4002b24:	04c00084 	movi	r19,2
 4002b28:	003dc006 	br	400222c <__ram_exceptions_end+0xfbfc1fe4>
 4002b2c:	da00a617 	ldw	r8,664(sp)
 4002b30:	00800084 	movi	r2,2
 4002b34:	123fe416 	blt	r2,r8,4002ac8 <__ram_exceptions_end+0xfbfc2880>
 4002b38:	02000c16 	blt	zero,r8,4002b6c <__kernel_rem_pio2+0xd84>
 4002b3c:	403ed51e 	bne	r8,zero,4002694 <__ram_exceptions_end+0xfbfc244c>
 4002b40:	0005883a 	mov	r2,zero
 4002b44:	0007883a 	mov	r3,zero
 4002b48:	003ecc06 	br	400267c <__ram_exceptions_end+0xfbfc2434>
 4002b4c:	d8009215 	stw	zero,584(sp)
 4002b50:	003cc306 	br	4001e60 <__ram_exceptions_end+0xfbfc1c18>
 4002b54:	da008f17 	ldw	r8,572(sp)
 4002b58:	1009883a 	mov	r4,r2
 4002b5c:	1805883a 	mov	r2,r3
 4002b60:	41000215 	stw	r4,8(r8)
 4002b64:	40800315 	stw	r2,12(r8)
 4002b68:	003eca06 	br	4002694 <__ram_exceptions_end+0xfbfc244c>
 4002b6c:	0005883a 	mov	r2,zero
 4002b70:	0007883a 	mov	r3,zero
 4002b74:	003f9d06 	br	40029ec <__ram_exceptions_end+0xfbfc27a4>

04002b78 <__kernel_sin>:
 4002b78:	00a00034 	movhi	r2,32768
 4002b7c:	defff404 	addi	sp,sp,-48
 4002b80:	10bfffc4 	addi	r2,r2,-1
 4002b84:	00cf9034 	movhi	r3,15936
 4002b88:	ddc00915 	stw	r23,36(sp)
 4002b8c:	dd800815 	stw	r22,32(sp)
 4002b90:	dc400315 	stw	r17,12(sp)
 4002b94:	dc000215 	stw	r16,8(sp)
 4002b98:	dfc00b15 	stw	ra,44(sp)
 4002b9c:	df000a15 	stw	fp,40(sp)
 4002ba0:	dd400715 	stw	r21,28(sp)
 4002ba4:	dd000615 	stw	r20,24(sp)
 4002ba8:	dcc00515 	stw	r19,20(sp)
 4002bac:	dc800415 	stw	r18,16(sp)
 4002bb0:	2884703a 	and	r2,r5,r2
 4002bb4:	18ffffc4 	addi	r3,r3,-1
 4002bb8:	2821883a 	mov	r16,r5
 4002bbc:	2023883a 	mov	r17,r4
 4002bc0:	302f883a 	mov	r23,r6
 4002bc4:	382d883a 	mov	r22,r7
 4002bc8:	18800216 	blt	r3,r2,4002bd4 <__kernel_sin+0x5c>
 4002bcc:	400634c0 	call	400634c <__fixdfsi>
 4002bd0:	10009926 	beq	r2,zero,4002e38 <__kernel_sin+0x2c0>
 4002bd4:	880d883a 	mov	r6,r17
 4002bd8:	800f883a 	mov	r7,r16
 4002bdc:	8809883a 	mov	r4,r17
 4002be0:	800b883a 	mov	r5,r16
 4002be4:	40053380 	call	4005338 <__muldf3>
 4002be8:	100d883a 	mov	r6,r2
 4002bec:	180f883a 	mov	r7,r3
 4002bf0:	8809883a 	mov	r4,r17
 4002bf4:	800b883a 	mov	r5,r16
 4002bf8:	1027883a 	mov	r19,r2
 4002bfc:	1825883a 	mov	r18,r3
 4002c00:	40053380 	call	4005338 <__muldf3>
 4002c04:	0196b434 	movhi	r6,23248
 4002c08:	01cf79b4 	movhi	r7,15846
 4002c0c:	31b55f04 	addi	r6,r6,-10884
 4002c10:	39f64e84 	addi	r7,r7,-9926
 4002c14:	9809883a 	mov	r4,r19
 4002c18:	900b883a 	mov	r5,r18
 4002c1c:	102b883a 	mov	r21,r2
 4002c20:	1829883a 	mov	r20,r3
 4002c24:	40053380 	call	4005338 <__muldf3>
 4002c28:	01a28b34 	movhi	r6,35372
 4002c2c:	01cf96f4 	movhi	r7,15963
 4002c30:	31a73ac4 	addi	r6,r6,-25365
 4002c34:	39f97984 	addi	r7,r7,-6682
 4002c38:	1009883a 	mov	r4,r2
 4002c3c:	180b883a 	mov	r5,r3
 4002c40:	4005a500 	call	4005a50 <__subdf3>
 4002c44:	980d883a 	mov	r6,r19
 4002c48:	900f883a 	mov	r7,r18
 4002c4c:	1009883a 	mov	r4,r2
 4002c50:	180b883a 	mov	r5,r3
 4002c54:	40053380 	call	4005338 <__muldf3>
 4002c58:	0195ecb4 	movhi	r6,22450
 4002c5c:	01cfb1f4 	movhi	r7,16071
 4002c60:	31bf9f44 	addi	r6,r6,-387
 4002c64:	39c778c4 	addi	r7,r7,7651
 4002c68:	1009883a 	mov	r4,r2
 4002c6c:	180b883a 	mov	r5,r3
 4002c70:	40049280 	call	4004928 <__adddf3>
 4002c74:	980d883a 	mov	r6,r19
 4002c78:	900f883a 	mov	r7,r18
 4002c7c:	1009883a 	mov	r4,r2
 4002c80:	180b883a 	mov	r5,r3
 4002c84:	40053380 	call	4005338 <__muldf3>
 4002c88:	01867074 	movhi	r6,6593
 4002c8c:	01cfcab4 	movhi	r7,16170
 4002c90:	31987544 	addi	r6,r6,25045
 4002c94:	39c06804 	addi	r7,r7,416
 4002c98:	1009883a 	mov	r4,r2
 4002c9c:	180b883a 	mov	r5,r3
 4002ca0:	4005a500 	call	4005a50 <__subdf3>
 4002ca4:	980d883a 	mov	r6,r19
 4002ca8:	900f883a 	mov	r7,r18
 4002cac:	1009883a 	mov	r4,r2
 4002cb0:	180b883a 	mov	r5,r3
 4002cb4:	40053380 	call	4005338 <__muldf3>
 4002cb8:	01844474 	movhi	r6,4369
 4002cbc:	01cfe074 	movhi	r7,16257
 4002cc0:	31be2984 	addi	r6,r6,-1882
 4002cc4:	39c44444 	addi	r7,r7,4369
 4002cc8:	1009883a 	mov	r4,r2
 4002ccc:	180b883a 	mov	r5,r3
 4002cd0:	40049280 	call	4004928 <__adddf3>
 4002cd4:	1011883a 	mov	r8,r2
 4002cd8:	d8800c17 	ldw	r2,48(sp)
 4002cdc:	1839883a 	mov	fp,r3
 4002ce0:	10003e26 	beq	r2,zero,4002ddc <__kernel_sin+0x264>
 4002ce4:	000d883a 	mov	r6,zero
 4002ce8:	01cff834 	movhi	r7,16352
 4002cec:	b809883a 	mov	r4,r23
 4002cf0:	b00b883a 	mov	r5,r22
 4002cf4:	da000015 	stw	r8,0(sp)
 4002cf8:	40053380 	call	4005338 <__muldf3>
 4002cfc:	da000017 	ldw	r8,0(sp)
 4002d00:	e00f883a 	mov	r7,fp
 4002d04:	a809883a 	mov	r4,r21
 4002d08:	400d883a 	mov	r6,r8
 4002d0c:	a00b883a 	mov	r5,r20
 4002d10:	d8c00115 	stw	r3,4(sp)
 4002d14:	d8800015 	stw	r2,0(sp)
 4002d18:	40053380 	call	4005338 <__muldf3>
 4002d1c:	da800017 	ldw	r10,0(sp)
 4002d20:	da400117 	ldw	r9,4(sp)
 4002d24:	100d883a 	mov	r6,r2
 4002d28:	5009883a 	mov	r4,r10
 4002d2c:	480b883a 	mov	r5,r9
 4002d30:	180f883a 	mov	r7,r3
 4002d34:	4005a500 	call	4005a50 <__subdf3>
 4002d38:	980d883a 	mov	r6,r19
 4002d3c:	900f883a 	mov	r7,r18
 4002d40:	1009883a 	mov	r4,r2
 4002d44:	180b883a 	mov	r5,r3
 4002d48:	40053380 	call	4005338 <__muldf3>
 4002d4c:	b80d883a 	mov	r6,r23
 4002d50:	b00f883a 	mov	r7,r22
 4002d54:	1009883a 	mov	r4,r2
 4002d58:	180b883a 	mov	r5,r3
 4002d5c:	4005a500 	call	4005a50 <__subdf3>
 4002d60:	01955574 	movhi	r6,21845
 4002d64:	01cff174 	movhi	r7,16325
 4002d68:	31955244 	addi	r6,r6,21833
 4002d6c:	39d55544 	addi	r7,r7,21845
 4002d70:	a809883a 	mov	r4,r21
 4002d74:	a00b883a 	mov	r5,r20
 4002d78:	1027883a 	mov	r19,r2
 4002d7c:	1825883a 	mov	r18,r3
 4002d80:	40053380 	call	4005338 <__muldf3>
 4002d84:	100d883a 	mov	r6,r2
 4002d88:	180f883a 	mov	r7,r3
 4002d8c:	9809883a 	mov	r4,r19
 4002d90:	900b883a 	mov	r5,r18
 4002d94:	40049280 	call	4004928 <__adddf3>
 4002d98:	100d883a 	mov	r6,r2
 4002d9c:	180f883a 	mov	r7,r3
 4002da0:	8809883a 	mov	r4,r17
 4002da4:	800b883a 	mov	r5,r16
 4002da8:	4005a500 	call	4005a50 <__subdf3>
 4002dac:	dfc00b17 	ldw	ra,44(sp)
 4002db0:	df000a17 	ldw	fp,40(sp)
 4002db4:	ddc00917 	ldw	r23,36(sp)
 4002db8:	dd800817 	ldw	r22,32(sp)
 4002dbc:	dd400717 	ldw	r21,28(sp)
 4002dc0:	dd000617 	ldw	r20,24(sp)
 4002dc4:	dcc00517 	ldw	r19,20(sp)
 4002dc8:	dc800417 	ldw	r18,16(sp)
 4002dcc:	dc400317 	ldw	r17,12(sp)
 4002dd0:	dc000217 	ldw	r16,8(sp)
 4002dd4:	dec00c04 	addi	sp,sp,48
 4002dd8:	f800283a 	ret
 4002ddc:	400d883a 	mov	r6,r8
 4002de0:	9809883a 	mov	r4,r19
 4002de4:	900b883a 	mov	r5,r18
 4002de8:	180f883a 	mov	r7,r3
 4002dec:	40053380 	call	4005338 <__muldf3>
 4002df0:	01955574 	movhi	r6,21845
 4002df4:	01cff174 	movhi	r7,16325
 4002df8:	31955244 	addi	r6,r6,21833
 4002dfc:	39d55544 	addi	r7,r7,21845
 4002e00:	1009883a 	mov	r4,r2
 4002e04:	180b883a 	mov	r5,r3
 4002e08:	4005a500 	call	4005a50 <__subdf3>
 4002e0c:	a80d883a 	mov	r6,r21
 4002e10:	a00f883a 	mov	r7,r20
 4002e14:	1009883a 	mov	r4,r2
 4002e18:	180b883a 	mov	r5,r3
 4002e1c:	40053380 	call	4005338 <__muldf3>
 4002e20:	880d883a 	mov	r6,r17
 4002e24:	800f883a 	mov	r7,r16
 4002e28:	1009883a 	mov	r4,r2
 4002e2c:	180b883a 	mov	r5,r3
 4002e30:	40049280 	call	4004928 <__adddf3>
 4002e34:	003fdd06 	br	4002dac <__ram_exceptions_end+0xfbfc2b64>
 4002e38:	8805883a 	mov	r2,r17
 4002e3c:	8007883a 	mov	r3,r16
 4002e40:	003fda06 	br	4002dac <__ram_exceptions_end+0xfbfc2b64>

04002e44 <fabs>:
 4002e44:	00e00034 	movhi	r3,32768
 4002e48:	18ffffc4 	addi	r3,r3,-1
 4002e4c:	2005883a 	mov	r2,r4
 4002e50:	28c6703a 	and	r3,r5,r3
 4002e54:	f800283a 	ret

04002e58 <floor>:
 4002e58:	2811d53a 	srai	r8,r5,20
 4002e5c:	defffa04 	addi	sp,sp,-24
 4002e60:	dcc00315 	stw	r19,12(sp)
 4002e64:	4201ffcc 	andi	r8,r8,2047
 4002e68:	dc800215 	stw	r18,8(sp)
 4002e6c:	dc400115 	stw	r17,4(sp)
 4002e70:	dc000015 	stw	r16,0(sp)
 4002e74:	dfc00515 	stw	ra,20(sp)
 4002e78:	dd000415 	stw	r20,16(sp)
 4002e7c:	44bf0044 	addi	r18,r8,-1023
 4002e80:	018004c4 	movi	r6,19
 4002e84:	2821883a 	mov	r16,r5
 4002e88:	2005883a 	mov	r2,r4
 4002e8c:	280f883a 	mov	r7,r5
 4002e90:	2827883a 	mov	r19,r5
 4002e94:	2023883a 	mov	r17,r4
 4002e98:	34801916 	blt	r6,r18,4002f00 <floor+0xa8>
 4002e9c:	90003c16 	blt	r18,zero,4002f90 <floor+0x138>
 4002ea0:	05000434 	movhi	r20,16
 4002ea4:	a53fffc4 	addi	r20,r20,-1
 4002ea8:	a4a9d83a 	sra	r20,r20,r18
 4002eac:	2d0c703a 	and	r6,r5,r20
 4002eb0:	310cb03a 	or	r6,r6,r4
 4002eb4:	30001626 	beq	r6,zero,4002f10 <floor+0xb8>
 4002eb8:	01a20034 	movhi	r6,34816
 4002ebc:	01df8e34 	movhi	r7,32312
 4002ec0:	319d6704 	addi	r6,r6,30108
 4002ec4:	39f90f04 	addi	r7,r7,-7108
 4002ec8:	40049280 	call	4004928 <__adddf3>
 4002ecc:	000d883a 	mov	r6,zero
 4002ed0:	000f883a 	mov	r7,zero
 4002ed4:	1009883a 	mov	r4,r2
 4002ed8:	180b883a 	mov	r5,r3
 4002edc:	400525c0 	call	400525c <__gedf2>
 4002ee0:	0080040e 	bge	zero,r2,4002ef4 <floor+0x9c>
 4002ee4:	80003c16 	blt	r16,zero,4002fd8 <floor+0x180>
 4002ee8:	0520303a 	nor	r16,zero,r20
 4002eec:	84e0703a 	and	r16,r16,r19
 4002ef0:	0023883a 	mov	r17,zero
 4002ef4:	8805883a 	mov	r2,r17
 4002ef8:	8007883a 	mov	r3,r16
 4002efc:	00000506 	br	4002f14 <floor+0xbc>
 4002f00:	01800cc4 	movi	r6,51
 4002f04:	34800b0e 	bge	r6,r18,4002f34 <floor+0xdc>
 4002f08:	01810004 	movi	r6,1024
 4002f0c:	91802f26 	beq	r18,r6,4002fcc <floor+0x174>
 4002f10:	3807883a 	mov	r3,r7
 4002f14:	dfc00517 	ldw	ra,20(sp)
 4002f18:	dd000417 	ldw	r20,16(sp)
 4002f1c:	dcc00317 	ldw	r19,12(sp)
 4002f20:	dc800217 	ldw	r18,8(sp)
 4002f24:	dc400117 	ldw	r17,4(sp)
 4002f28:	dc000017 	ldw	r16,0(sp)
 4002f2c:	dec00604 	addi	sp,sp,24
 4002f30:	f800283a 	ret
 4002f34:	423efb44 	addi	r8,r8,-1043
 4002f38:	053fffc4 	movi	r20,-1
 4002f3c:	a228d83a 	srl	r20,r20,r8
 4002f40:	250c703a 	and	r6,r4,r20
 4002f44:	303ff226 	beq	r6,zero,4002f10 <__ram_exceptions_end+0xfbfc2cc8>
 4002f48:	01a20034 	movhi	r6,34816
 4002f4c:	01df8e34 	movhi	r7,32312
 4002f50:	319d6704 	addi	r6,r6,30108
 4002f54:	39f90f04 	addi	r7,r7,-7108
 4002f58:	40049280 	call	4004928 <__adddf3>
 4002f5c:	000d883a 	mov	r6,zero
 4002f60:	000f883a 	mov	r7,zero
 4002f64:	1009883a 	mov	r4,r2
 4002f68:	180b883a 	mov	r5,r3
 4002f6c:	400525c0 	call	400525c <__gedf2>
 4002f70:	00bfe00e 	bge	zero,r2,4002ef4 <__ram_exceptions_end+0xfbfc2cac>
 4002f74:	80001c16 	blt	r16,zero,4002fe8 <floor+0x190>
 4002f78:	0510303a 	nor	r8,zero,r20
 4002f7c:	9821883a 	mov	r16,r19
 4002f80:	8a22703a 	and	r17,r17,r8
 4002f84:	8805883a 	mov	r2,r17
 4002f88:	8007883a 	mov	r3,r16
 4002f8c:	003fe106 	br	4002f14 <__ram_exceptions_end+0xfbfc2ccc>
 4002f90:	01a20034 	movhi	r6,34816
 4002f94:	01df8e34 	movhi	r7,32312
 4002f98:	319d6704 	addi	r6,r6,30108
 4002f9c:	39f90f04 	addi	r7,r7,-7108
 4002fa0:	40049280 	call	4004928 <__adddf3>
 4002fa4:	000d883a 	mov	r6,zero
 4002fa8:	000f883a 	mov	r7,zero
 4002fac:	1009883a 	mov	r4,r2
 4002fb0:	180b883a 	mov	r5,r3
 4002fb4:	400525c0 	call	400525c <__gedf2>
 4002fb8:	00bfce0e 	bge	zero,r2,4002ef4 <__ram_exceptions_end+0xfbfc2cac>
 4002fbc:	80001516 	blt	r16,zero,4003014 <floor+0x1bc>
 4002fc0:	0023883a 	mov	r17,zero
 4002fc4:	0021883a 	mov	r16,zero
 4002fc8:	003fca06 	br	4002ef4 <__ram_exceptions_end+0xfbfc2cac>
 4002fcc:	200d883a 	mov	r6,r4
 4002fd0:	40049280 	call	4004928 <__adddf3>
 4002fd4:	003fcf06 	br	4002f14 <__ram_exceptions_end+0xfbfc2ccc>
 4002fd8:	00800434 	movhi	r2,16
 4002fdc:	14a5d83a 	sra	r18,r2,r18
 4002fe0:	84a7883a 	add	r19,r16,r18
 4002fe4:	003fc006 	br	4002ee8 <__ram_exceptions_end+0xfbfc2ca0>
 4002fe8:	00800504 	movi	r2,20
 4002fec:	90801326 	beq	r18,r2,400303c <floor+0x1e4>
 4002ff0:	00800d04 	movi	r2,52
 4002ff4:	14a5c83a 	sub	r18,r2,r18
 4002ff8:	00800044 	movi	r2,1
 4002ffc:	1484983a 	sll	r2,r2,r18
 4003000:	1445883a 	add	r2,r2,r17
 4003004:	14400b2e 	bgeu	r2,r17,4003034 <floor+0x1dc>
 4003008:	84c00044 	addi	r19,r16,1
 400300c:	1023883a 	mov	r17,r2
 4003010:	003fd906 	br	4002f78 <__ram_exceptions_end+0xfbfc2d30>
 4003014:	00a00034 	movhi	r2,32768
 4003018:	10bfffc4 	addi	r2,r2,-1
 400301c:	8084703a 	and	r2,r16,r2
 4003020:	1462b03a 	or	r17,r2,r17
 4003024:	883fb326 	beq	r17,zero,4002ef4 <__ram_exceptions_end+0xfbfc2cac>
 4003028:	0023883a 	mov	r17,zero
 400302c:	042ffc34 	movhi	r16,49136
 4003030:	003fb006 	br	4002ef4 <__ram_exceptions_end+0xfbfc2cac>
 4003034:	1023883a 	mov	r17,r2
 4003038:	003fcf06 	br	4002f78 <__ram_exceptions_end+0xfbfc2d30>
 400303c:	84c00044 	addi	r19,r16,1
 4003040:	003fcd06 	br	4002f78 <__ram_exceptions_end+0xfbfc2d30>

04003044 <scalbn>:
 4003044:	2a1ffc2c 	andhi	r8,r5,32752
 4003048:	4011d53a 	srai	r8,r8,20
 400304c:	defffe04 	addi	sp,sp,-8
 4003050:	dc000015 	stw	r16,0(sp)
 4003054:	dfc00115 	stw	ra,4(sp)
 4003058:	280f883a 	mov	r7,r5
 400305c:	2015883a 	mov	r10,r4
 4003060:	3021883a 	mov	r16,r6
 4003064:	40001e1e 	bne	r8,zero,40030e0 <scalbn+0x9c>
 4003068:	00a00034 	movhi	r2,32768
 400306c:	10bfffc4 	addi	r2,r2,-1
 4003070:	2884703a 	and	r2,r5,r2
 4003074:	1104b03a 	or	r2,r2,r4
 4003078:	10002226 	beq	r2,zero,4003104 <scalbn+0xc0>
 400307c:	01d0d434 	movhi	r7,17232
 4003080:	000d883a 	mov	r6,zero
 4003084:	40053380 	call	4005338 <__muldf3>
 4003088:	013ffff4 	movhi	r4,65535
 400308c:	210f2c04 	addi	r4,r4,15536
 4003090:	1015883a 	mov	r10,r2
 4003094:	180f883a 	mov	r7,r3
 4003098:	81002a16 	blt	r16,r4,4003144 <scalbn+0x100>
 400309c:	191ffc2c 	andhi	r4,r3,32752
 40030a0:	2009d53a 	srai	r4,r4,20
 40030a4:	223ff284 	addi	r8,r4,-54
 40030a8:	8211883a 	add	r8,r16,r8
 40030ac:	0081ff84 	movi	r2,2046
 40030b0:	12002f16 	blt	r2,r8,4003170 <scalbn+0x12c>
 40030b4:	0200190e 	bge	zero,r8,400311c <scalbn+0xd8>
 40030b8:	4010953a 	slli	r8,r8,20
 40030bc:	01600434 	movhi	r5,32784
 40030c0:	297fffc4 	addi	r5,r5,-1
 40030c4:	194e703a 	and	r7,r3,r5
 40030c8:	5005883a 	mov	r2,r10
 40030cc:	3a06b03a 	or	r3,r7,r8
 40030d0:	dfc00117 	ldw	ra,4(sp)
 40030d4:	dc000017 	ldw	r16,0(sp)
 40030d8:	dec00204 	addi	sp,sp,8
 40030dc:	f800283a 	ret
 40030e0:	0081ffc4 	movi	r2,2047
 40030e4:	2807883a 	mov	r3,r5
 40030e8:	40bfef1e 	bne	r8,r2,40030a8 <__ram_exceptions_end+0xfbfc2e60>
 40030ec:	200d883a 	mov	r6,r4
 40030f0:	40049280 	call	4004928 <__adddf3>
 40030f4:	dfc00117 	ldw	ra,4(sp)
 40030f8:	dc000017 	ldw	r16,0(sp)
 40030fc:	dec00204 	addi	sp,sp,8
 4003100:	f800283a 	ret
 4003104:	2005883a 	mov	r2,r4
 4003108:	2807883a 	mov	r3,r5
 400310c:	dfc00117 	ldw	ra,4(sp)
 4003110:	dc000017 	ldw	r16,0(sp)
 4003114:	dec00204 	addi	sp,sp,8
 4003118:	f800283a 	ret
 400311c:	00bff2c4 	movi	r2,-53
 4003120:	4080240e 	bge	r8,r2,40031b4 <scalbn+0x170>
 4003124:	00b0d414 	movui	r2,50000
 4003128:	14001116 	blt	r2,r16,4003170 <scalbn+0x12c>
 400312c:	0130be74 	movhi	r4,49913
 4003130:	01406974 	movhi	r5,421
 4003134:	213cd644 	addi	r4,r4,-3239
 4003138:	295b87c4 	addi	r5,r5,28191
 400313c:	500d883a 	mov	r6,r10
 4003140:	40031e00 	call	40031e0 <copysign>
 4003144:	01b0be74 	movhi	r6,49913
 4003148:	01c06974 	movhi	r7,421
 400314c:	31bcd644 	addi	r6,r6,-3239
 4003150:	39db87c4 	addi	r7,r7,28191
 4003154:	1009883a 	mov	r4,r2
 4003158:	180b883a 	mov	r5,r3
 400315c:	40053380 	call	4005338 <__muldf3>
 4003160:	dfc00117 	ldw	ra,4(sp)
 4003164:	dc000017 	ldw	r16,0(sp)
 4003168:	dec00204 	addi	sp,sp,8
 400316c:	f800283a 	ret
 4003170:	01220034 	movhi	r4,34816
 4003174:	015f8e34 	movhi	r5,32312
 4003178:	500d883a 	mov	r6,r10
 400317c:	211d6704 	addi	r4,r4,30108
 4003180:	29790f04 	addi	r5,r5,-7108
 4003184:	40031e00 	call	40031e0 <copysign>
 4003188:	01a20034 	movhi	r6,34816
 400318c:	01df8e34 	movhi	r7,32312
 4003190:	319d6704 	addi	r6,r6,30108
 4003194:	39f90f04 	addi	r7,r7,-7108
 4003198:	1009883a 	mov	r4,r2
 400319c:	180b883a 	mov	r5,r3
 40031a0:	40053380 	call	4005338 <__muldf3>
 40031a4:	dfc00117 	ldw	ra,4(sp)
 40031a8:	dc000017 	ldw	r16,0(sp)
 40031ac:	dec00204 	addi	sp,sp,8
 40031b0:	f800283a 	ret
 40031b4:	42000d84 	addi	r8,r8,54
 40031b8:	4012953a 	slli	r9,r8,20
 40031bc:	01e00434 	movhi	r7,32784
 40031c0:	39ffffc4 	addi	r7,r7,-1
 40031c4:	19ca703a 	and	r5,r3,r7
 40031c8:	000d883a 	mov	r6,zero
 40031cc:	01cf2434 	movhi	r7,15504
 40031d0:	5009883a 	mov	r4,r10
 40031d4:	494ab03a 	or	r5,r9,r5
 40031d8:	40053380 	call	4005338 <__muldf3>
 40031dc:	003fbc06 	br	40030d0 <__ram_exceptions_end+0xfbfc2e88>

040031e0 <copysign>:
 40031e0:	2005883a 	mov	r2,r4
 40031e4:	01200034 	movhi	r4,32768
 40031e8:	213fffc4 	addi	r4,r4,-1
 40031ec:	38e0002c 	andhi	r3,r7,32768
 40031f0:	290a703a 	and	r5,r5,r4
 40031f4:	28c6b03a 	or	r3,r5,r3
 40031f8:	f800283a 	ret

040031fc <__divsi3>:
 40031fc:	20001b16 	blt	r4,zero,400326c <__divsi3+0x70>
 4003200:	000f883a 	mov	r7,zero
 4003204:	28001616 	blt	r5,zero,4003260 <__divsi3+0x64>
 4003208:	200d883a 	mov	r6,r4
 400320c:	29001a2e 	bgeu	r5,r4,4003278 <__divsi3+0x7c>
 4003210:	00800804 	movi	r2,32
 4003214:	00c00044 	movi	r3,1
 4003218:	00000106 	br	4003220 <__divsi3+0x24>
 400321c:	10000d26 	beq	r2,zero,4003254 <__divsi3+0x58>
 4003220:	294b883a 	add	r5,r5,r5
 4003224:	10bfffc4 	addi	r2,r2,-1
 4003228:	18c7883a 	add	r3,r3,r3
 400322c:	293ffb36 	bltu	r5,r4,400321c <__ram_exceptions_end+0xfbfc2fd4>
 4003230:	0005883a 	mov	r2,zero
 4003234:	18000726 	beq	r3,zero,4003254 <__divsi3+0x58>
 4003238:	0005883a 	mov	r2,zero
 400323c:	31400236 	bltu	r6,r5,4003248 <__divsi3+0x4c>
 4003240:	314dc83a 	sub	r6,r6,r5
 4003244:	10c4b03a 	or	r2,r2,r3
 4003248:	1806d07a 	srli	r3,r3,1
 400324c:	280ad07a 	srli	r5,r5,1
 4003250:	183ffa1e 	bne	r3,zero,400323c <__ram_exceptions_end+0xfbfc2ff4>
 4003254:	38000126 	beq	r7,zero,400325c <__divsi3+0x60>
 4003258:	0085c83a 	sub	r2,zero,r2
 400325c:	f800283a 	ret
 4003260:	014bc83a 	sub	r5,zero,r5
 4003264:	39c0005c 	xori	r7,r7,1
 4003268:	003fe706 	br	4003208 <__ram_exceptions_end+0xfbfc2fc0>
 400326c:	0109c83a 	sub	r4,zero,r4
 4003270:	01c00044 	movi	r7,1
 4003274:	003fe306 	br	4003204 <__ram_exceptions_end+0xfbfc2fbc>
 4003278:	00c00044 	movi	r3,1
 400327c:	003fee06 	br	4003238 <__ram_exceptions_end+0xfbfc2ff0>

04003280 <__modsi3>:
 4003280:	20001716 	blt	r4,zero,40032e0 <__modsi3+0x60>
 4003284:	000f883a 	mov	r7,zero
 4003288:	2005883a 	mov	r2,r4
 400328c:	28001216 	blt	r5,zero,40032d8 <__modsi3+0x58>
 4003290:	2900162e 	bgeu	r5,r4,40032ec <__modsi3+0x6c>
 4003294:	01800804 	movi	r6,32
 4003298:	00c00044 	movi	r3,1
 400329c:	00000106 	br	40032a4 <__modsi3+0x24>
 40032a0:	30000a26 	beq	r6,zero,40032cc <__modsi3+0x4c>
 40032a4:	294b883a 	add	r5,r5,r5
 40032a8:	31bfffc4 	addi	r6,r6,-1
 40032ac:	18c7883a 	add	r3,r3,r3
 40032b0:	293ffb36 	bltu	r5,r4,40032a0 <__ram_exceptions_end+0xfbfc3058>
 40032b4:	18000526 	beq	r3,zero,40032cc <__modsi3+0x4c>
 40032b8:	1806d07a 	srli	r3,r3,1
 40032bc:	11400136 	bltu	r2,r5,40032c4 <__modsi3+0x44>
 40032c0:	1145c83a 	sub	r2,r2,r5
 40032c4:	280ad07a 	srli	r5,r5,1
 40032c8:	183ffb1e 	bne	r3,zero,40032b8 <__ram_exceptions_end+0xfbfc3070>
 40032cc:	38000126 	beq	r7,zero,40032d4 <__modsi3+0x54>
 40032d0:	0085c83a 	sub	r2,zero,r2
 40032d4:	f800283a 	ret
 40032d8:	014bc83a 	sub	r5,zero,r5
 40032dc:	003fec06 	br	4003290 <__ram_exceptions_end+0xfbfc3048>
 40032e0:	0109c83a 	sub	r4,zero,r4
 40032e4:	01c00044 	movi	r7,1
 40032e8:	003fe706 	br	4003288 <__ram_exceptions_end+0xfbfc3040>
 40032ec:	00c00044 	movi	r3,1
 40032f0:	003ff106 	br	40032b8 <__ram_exceptions_end+0xfbfc3070>

040032f4 <__udivsi3>:
 40032f4:	200d883a 	mov	r6,r4
 40032f8:	2900152e 	bgeu	r5,r4,4003350 <__udivsi3+0x5c>
 40032fc:	28001416 	blt	r5,zero,4003350 <__udivsi3+0x5c>
 4003300:	00800804 	movi	r2,32
 4003304:	00c00044 	movi	r3,1
 4003308:	00000206 	br	4003314 <__udivsi3+0x20>
 400330c:	10000e26 	beq	r2,zero,4003348 <__udivsi3+0x54>
 4003310:	28000516 	blt	r5,zero,4003328 <__udivsi3+0x34>
 4003314:	294b883a 	add	r5,r5,r5
 4003318:	10bfffc4 	addi	r2,r2,-1
 400331c:	18c7883a 	add	r3,r3,r3
 4003320:	293ffa36 	bltu	r5,r4,400330c <__ram_exceptions_end+0xfbfc30c4>
 4003324:	18000826 	beq	r3,zero,4003348 <__udivsi3+0x54>
 4003328:	0005883a 	mov	r2,zero
 400332c:	31400236 	bltu	r6,r5,4003338 <__udivsi3+0x44>
 4003330:	314dc83a 	sub	r6,r6,r5
 4003334:	10c4b03a 	or	r2,r2,r3
 4003338:	1806d07a 	srli	r3,r3,1
 400333c:	280ad07a 	srli	r5,r5,1
 4003340:	183ffa1e 	bne	r3,zero,400332c <__ram_exceptions_end+0xfbfc30e4>
 4003344:	f800283a 	ret
 4003348:	0005883a 	mov	r2,zero
 400334c:	f800283a 	ret
 4003350:	00c00044 	movi	r3,1
 4003354:	003ff406 	br	4003328 <__ram_exceptions_end+0xfbfc30e0>

04003358 <__umodsi3>:
 4003358:	2005883a 	mov	r2,r4
 400335c:	2900122e 	bgeu	r5,r4,40033a8 <__umodsi3+0x50>
 4003360:	28001116 	blt	r5,zero,40033a8 <__umodsi3+0x50>
 4003364:	01800804 	movi	r6,32
 4003368:	00c00044 	movi	r3,1
 400336c:	00000206 	br	4003378 <__umodsi3+0x20>
 4003370:	30000c26 	beq	r6,zero,40033a4 <__umodsi3+0x4c>
 4003374:	28000516 	blt	r5,zero,400338c <__umodsi3+0x34>
 4003378:	294b883a 	add	r5,r5,r5
 400337c:	31bfffc4 	addi	r6,r6,-1
 4003380:	18c7883a 	add	r3,r3,r3
 4003384:	293ffa36 	bltu	r5,r4,4003370 <__ram_exceptions_end+0xfbfc3128>
 4003388:	18000626 	beq	r3,zero,40033a4 <__umodsi3+0x4c>
 400338c:	1806d07a 	srli	r3,r3,1
 4003390:	11400136 	bltu	r2,r5,4003398 <__umodsi3+0x40>
 4003394:	1145c83a 	sub	r2,r2,r5
 4003398:	280ad07a 	srli	r5,r5,1
 400339c:	183ffb1e 	bne	r3,zero,400338c <__ram_exceptions_end+0xfbfc3144>
 40033a0:	f800283a 	ret
 40033a4:	f800283a 	ret
 40033a8:	00c00044 	movi	r3,1
 40033ac:	003ff706 	br	400338c <__ram_exceptions_end+0xfbfc3144>

040033b0 <__addsf3>:
 40033b0:	defffc04 	addi	sp,sp,-16
 40033b4:	2004d7fa 	srli	r2,r4,31
 40033b8:	280cd5fa 	srli	r6,r5,23
 40033bc:	dc000015 	stw	r16,0(sp)
 40033c0:	00c02034 	movhi	r3,128
 40033c4:	2020d5fa 	srli	r16,r4,23
 40033c8:	280ed7fa 	srli	r7,r5,31
 40033cc:	18ffffc4 	addi	r3,r3,-1
 40033d0:	dc400115 	stw	r17,4(sp)
 40033d4:	1908703a 	and	r4,r3,r4
 40033d8:	194a703a 	and	r5,r3,r5
 40033dc:	dfc00315 	stw	ra,12(sp)
 40033e0:	dc800215 	stw	r18,8(sp)
 40033e4:	14403fcc 	andi	r17,r2,255
 40033e8:	84003fcc 	andi	r16,r16,255
 40033ec:	200890fa 	slli	r4,r4,3
 40033f0:	31803fcc 	andi	r6,r6,255
 40033f4:	280a90fa 	slli	r5,r5,3
 40033f8:	89c05026 	beq	r17,r7,400353c <__addsf3+0x18c>
 40033fc:	8185c83a 	sub	r2,r16,r6
 4003400:	00807a0e 	bge	zero,r2,40035ec <__addsf3+0x23c>
 4003404:	30001e1e 	bne	r6,zero,4003480 <__addsf3+0xd0>
 4003408:	28006d1e 	bne	r5,zero,40035c0 <__addsf3+0x210>
 400340c:	208001cc 	andi	r2,r4,7
 4003410:	10000426 	beq	r2,zero,4003424 <__addsf3+0x74>
 4003414:	208003cc 	andi	r2,r4,15
 4003418:	00c00104 	movi	r3,4
 400341c:	10c00126 	beq	r2,r3,4003424 <__addsf3+0x74>
 4003420:	20c9883a 	add	r4,r4,r3
 4003424:	2081002c 	andhi	r2,r4,1024
 4003428:	10003926 	beq	r2,zero,4003510 <__addsf3+0x160>
 400342c:	84000044 	addi	r16,r16,1
 4003430:	00803fc4 	movi	r2,255
 4003434:	80807826 	beq	r16,r2,4003618 <__addsf3+0x268>
 4003438:	200891ba 	slli	r4,r4,6
 400343c:	8805883a 	mov	r2,r17
 4003440:	2008d27a 	srli	r4,r4,9
 4003444:	84003fcc 	andi	r16,r16,255
 4003448:	800695fa 	slli	r3,r16,23
 400344c:	10803fcc 	andi	r2,r2,255
 4003450:	04002034 	movhi	r16,128
 4003454:	843fffc4 	addi	r16,r16,-1
 4003458:	100497fa 	slli	r2,r2,31
 400345c:	2408703a 	and	r4,r4,r16
 4003460:	20e0b03a 	or	r16,r4,r3
 4003464:	8084b03a 	or	r2,r16,r2
 4003468:	dfc00317 	ldw	ra,12(sp)
 400346c:	dc800217 	ldw	r18,8(sp)
 4003470:	dc400117 	ldw	r17,4(sp)
 4003474:	dc000017 	ldw	r16,0(sp)
 4003478:	dec00404 	addi	sp,sp,16
 400347c:	f800283a 	ret
 4003480:	00c03fc4 	movi	r3,255
 4003484:	80ffe126 	beq	r16,r3,400340c <__ram_exceptions_end+0xfbfc31c4>
 4003488:	29410034 	orhi	r5,r5,1024
 400348c:	00c006c4 	movi	r3,27
 4003490:	18807516 	blt	r3,r2,4003668 <__addsf3+0x2b8>
 4003494:	00c00804 	movi	r3,32
 4003498:	1887c83a 	sub	r3,r3,r2
 400349c:	28c6983a 	sll	r3,r5,r3
 40034a0:	288ad83a 	srl	r5,r5,r2
 40034a4:	1804c03a 	cmpne	r2,r3,zero
 40034a8:	288ab03a 	or	r5,r5,r2
 40034ac:	2149c83a 	sub	r4,r4,r5
 40034b0:	2081002c 	andhi	r2,r4,1024
 40034b4:	10001426 	beq	r2,zero,4003508 <__addsf3+0x158>
 40034b8:	04810034 	movhi	r18,1024
 40034bc:	94bfffc4 	addi	r18,r18,-1
 40034c0:	24a4703a 	and	r18,r4,r18
 40034c4:	9009883a 	mov	r4,r18
 40034c8:	40065b80 	call	40065b8 <__clzsi2>
 40034cc:	10bffec4 	addi	r2,r2,-5
 40034d0:	90a4983a 	sll	r18,r18,r2
 40034d4:	14005416 	blt	r2,r16,4003628 <__addsf3+0x278>
 40034d8:	1405c83a 	sub	r2,r2,r16
 40034dc:	11000044 	addi	r4,r2,1
 40034e0:	00800804 	movi	r2,32
 40034e4:	1105c83a 	sub	r2,r2,r4
 40034e8:	9084983a 	sll	r2,r18,r2
 40034ec:	9124d83a 	srl	r18,r18,r4
 40034f0:	0021883a 	mov	r16,zero
 40034f4:	1008c03a 	cmpne	r4,r2,zero
 40034f8:	9108b03a 	or	r4,r18,r4
 40034fc:	003fc306 	br	400340c <__ram_exceptions_end+0xfbfc31c4>
 4003500:	1000db26 	beq	r2,zero,4003870 <__addsf3+0x4c0>
 4003504:	1009883a 	mov	r4,r2
 4003508:	208001cc 	andi	r2,r4,7
 400350c:	103fc11e 	bne	r2,zero,4003414 <__ram_exceptions_end+0xfbfc31cc>
 4003510:	2006d0fa 	srli	r3,r4,3
 4003514:	01003fc4 	movi	r4,255
 4003518:	8805883a 	mov	r2,r17
 400351c:	8100241e 	bne	r16,r4,40035b0 <__addsf3+0x200>
 4003520:	18006e26 	beq	r3,zero,40036dc <__addsf3+0x32c>
 4003524:	19001034 	orhi	r4,r3,64
 4003528:	00c02034 	movhi	r3,128
 400352c:	18ffffc4 	addi	r3,r3,-1
 4003530:	043fffc4 	movi	r16,-1
 4003534:	20c8703a 	and	r4,r4,r3
 4003538:	003fc206 	br	4003444 <__ram_exceptions_end+0xfbfc31fc>
 400353c:	8187c83a 	sub	r3,r16,r6
 4003540:	00c03e0e 	bge	zero,r3,400363c <__addsf3+0x28c>
 4003544:	30002326 	beq	r6,zero,40035d4 <__addsf3+0x224>
 4003548:	01803fc4 	movi	r6,255
 400354c:	81bfaf26 	beq	r16,r6,400340c <__ram_exceptions_end+0xfbfc31c4>
 4003550:	29410034 	orhi	r5,r5,1024
 4003554:	018006c4 	movi	r6,27
 4003558:	30c07416 	blt	r6,r3,400372c <__addsf3+0x37c>
 400355c:	01800804 	movi	r6,32
 4003560:	30cdc83a 	sub	r6,r6,r3
 4003564:	298c983a 	sll	r6,r5,r6
 4003568:	28cad83a 	srl	r5,r5,r3
 400356c:	3006c03a 	cmpne	r3,r6,zero
 4003570:	28cab03a 	or	r5,r5,r3
 4003574:	2149883a 	add	r4,r4,r5
 4003578:	20c1002c 	andhi	r3,r4,1024
 400357c:	183fe226 	beq	r3,zero,4003508 <__ram_exceptions_end+0xfbfc32c0>
 4003580:	84000044 	addi	r16,r16,1
 4003584:	00c03fc4 	movi	r3,255
 4003588:	80c05426 	beq	r16,r3,40036dc <__addsf3+0x32c>
 400358c:	00bf0034 	movhi	r2,64512
 4003590:	10bfffc4 	addi	r2,r2,-1
 4003594:	20c0004c 	andi	r3,r4,1
 4003598:	2088703a 	and	r4,r4,r2
 400359c:	2008d07a 	srli	r4,r4,1
 40035a0:	20c8b03a 	or	r4,r4,r3
 40035a4:	003f9906 	br	400340c <__ram_exceptions_end+0xfbfc31c4>
 40035a8:	0007883a 	mov	r3,zero
 40035ac:	0005883a 	mov	r2,zero
 40035b0:	01002034 	movhi	r4,128
 40035b4:	213fffc4 	addi	r4,r4,-1
 40035b8:	1908703a 	and	r4,r3,r4
 40035bc:	003fa106 	br	4003444 <__ram_exceptions_end+0xfbfc31fc>
 40035c0:	10bfffc4 	addi	r2,r2,-1
 40035c4:	103fb926 	beq	r2,zero,40034ac <__ram_exceptions_end+0xfbfc3264>
 40035c8:	00c03fc4 	movi	r3,255
 40035cc:	80ffaf1e 	bne	r16,r3,400348c <__ram_exceptions_end+0xfbfc3244>
 40035d0:	003f8e06 	br	400340c <__ram_exceptions_end+0xfbfc31c4>
 40035d4:	283f8d26 	beq	r5,zero,400340c <__ram_exceptions_end+0xfbfc31c4>
 40035d8:	18ffffc4 	addi	r3,r3,-1
 40035dc:	183fe526 	beq	r3,zero,4003574 <__ram_exceptions_end+0xfbfc332c>
 40035e0:	01803fc4 	movi	r6,255
 40035e4:	81bfdb1e 	bne	r16,r6,4003554 <__ram_exceptions_end+0xfbfc330c>
 40035e8:	003f8806 	br	400340c <__ram_exceptions_end+0xfbfc31c4>
 40035ec:	1000201e 	bne	r2,zero,4003670 <__addsf3+0x2c0>
 40035f0:	80800044 	addi	r2,r16,1
 40035f4:	10803fcc 	andi	r2,r2,255
 40035f8:	01800044 	movi	r6,1
 40035fc:	3080450e 	bge	r6,r2,4003714 <__addsf3+0x364>
 4003600:	2165c83a 	sub	r18,r4,r5
 4003604:	90c1002c 	andhi	r3,r18,1024
 4003608:	18002b26 	beq	r3,zero,40036b8 <__addsf3+0x308>
 400360c:	2925c83a 	sub	r18,r5,r4
 4003610:	3823883a 	mov	r17,r7
 4003614:	003fab06 	br	40034c4 <__ram_exceptions_end+0xfbfc327c>
 4003618:	8805883a 	mov	r2,r17
 400361c:	043fffc4 	movi	r16,-1
 4003620:	0009883a 	mov	r4,zero
 4003624:	003f8706 	br	4003444 <__ram_exceptions_end+0xfbfc31fc>
 4003628:	013f0034 	movhi	r4,64512
 400362c:	213fffc4 	addi	r4,r4,-1
 4003630:	80a1c83a 	sub	r16,r16,r2
 4003634:	9108703a 	and	r4,r18,r4
 4003638:	003f7406 	br	400340c <__ram_exceptions_end+0xfbfc31c4>
 400363c:	1800411e 	bne	r3,zero,4003744 <__addsf3+0x394>
 4003640:	80c00044 	addi	r3,r16,1
 4003644:	19c03fcc 	andi	r7,r3,255
 4003648:	01800044 	movi	r6,1
 400364c:	31c0260e 	bge	r6,r7,40036e8 <__addsf3+0x338>
 4003650:	01803fc4 	movi	r6,255
 4003654:	19802126 	beq	r3,r6,40036dc <__addsf3+0x32c>
 4003658:	2149883a 	add	r4,r4,r5
 400365c:	2008d07a 	srli	r4,r4,1
 4003660:	1821883a 	mov	r16,r3
 4003664:	003f6906 	br	400340c <__ram_exceptions_end+0xfbfc31c4>
 4003668:	01400044 	movi	r5,1
 400366c:	003f8f06 	br	40034ac <__ram_exceptions_end+0xfbfc3264>
 4003670:	8000151e 	bne	r16,zero,40036c8 <__addsf3+0x318>
 4003674:	20002f26 	beq	r4,zero,4003734 <__addsf3+0x384>
 4003678:	0084303a 	nor	r2,zero,r2
 400367c:	10000a26 	beq	r2,zero,40036a8 <__addsf3+0x2f8>
 4003680:	00c03fc4 	movi	r3,255
 4003684:	30c02b26 	beq	r6,r3,4003734 <__addsf3+0x384>
 4003688:	00c006c4 	movi	r3,27
 400368c:	18806d16 	blt	r3,r2,4003844 <__addsf3+0x494>
 4003690:	00c00804 	movi	r3,32
 4003694:	1887c83a 	sub	r3,r3,r2
 4003698:	20c6983a 	sll	r3,r4,r3
 400369c:	2084d83a 	srl	r2,r4,r2
 40036a0:	1808c03a 	cmpne	r4,r3,zero
 40036a4:	1108b03a 	or	r4,r2,r4
 40036a8:	2909c83a 	sub	r4,r5,r4
 40036ac:	3021883a 	mov	r16,r6
 40036b0:	3823883a 	mov	r17,r7
 40036b4:	003f7e06 	br	40034b0 <__ram_exceptions_end+0xfbfc3268>
 40036b8:	903f821e 	bne	r18,zero,40034c4 <__ram_exceptions_end+0xfbfc327c>
 40036bc:	0005883a 	mov	r2,zero
 40036c0:	0021883a 	mov	r16,zero
 40036c4:	003fba06 	br	40035b0 <__ram_exceptions_end+0xfbfc3368>
 40036c8:	00c03fc4 	movi	r3,255
 40036cc:	30c01926 	beq	r6,r3,4003734 <__addsf3+0x384>
 40036d0:	0085c83a 	sub	r2,zero,r2
 40036d4:	21010034 	orhi	r4,r4,1024
 40036d8:	003feb06 	br	4003688 <__ram_exceptions_end+0xfbfc3440>
 40036dc:	043fffc4 	movi	r16,-1
 40036e0:	0009883a 	mov	r4,zero
 40036e4:	003f5706 	br	4003444 <__ram_exceptions_end+0xfbfc31fc>
 40036e8:	80004a1e 	bne	r16,zero,4003814 <__addsf3+0x464>
 40036ec:	20005926 	beq	r4,zero,4003854 <__addsf3+0x4a4>
 40036f0:	283f4626 	beq	r5,zero,400340c <__ram_exceptions_end+0xfbfc31c4>
 40036f4:	2149883a 	add	r4,r4,r5
 40036f8:	2081002c 	andhi	r2,r4,1024
 40036fc:	103f8226 	beq	r2,zero,4003508 <__ram_exceptions_end+0xfbfc32c0>
 4003700:	00bf0034 	movhi	r2,64512
 4003704:	10bfffc4 	addi	r2,r2,-1
 4003708:	3021883a 	mov	r16,r6
 400370c:	2088703a 	and	r4,r4,r2
 4003710:	003f3e06 	br	400340c <__ram_exceptions_end+0xfbfc31c4>
 4003714:	8000121e 	bne	r16,zero,4003760 <__addsf3+0x3b0>
 4003718:	2000261e 	bne	r4,zero,40037b4 <__addsf3+0x404>
 400371c:	283fa226 	beq	r5,zero,40035a8 <__ram_exceptions_end+0xfbfc3360>
 4003720:	2809883a 	mov	r4,r5
 4003724:	3823883a 	mov	r17,r7
 4003728:	003f3806 	br	400340c <__ram_exceptions_end+0xfbfc31c4>
 400372c:	01400044 	movi	r5,1
 4003730:	003f9006 	br	4003574 <__ram_exceptions_end+0xfbfc332c>
 4003734:	2809883a 	mov	r4,r5
 4003738:	3021883a 	mov	r16,r6
 400373c:	3823883a 	mov	r17,r7
 4003740:	003f3206 	br	400340c <__ram_exceptions_end+0xfbfc31c4>
 4003744:	80000c1e 	bne	r16,zero,4003778 <__addsf3+0x3c8>
 4003748:	20002f26 	beq	r4,zero,4003808 <__addsf3+0x458>
 400374c:	00c6303a 	nor	r3,zero,r3
 4003750:	18002b1e 	bne	r3,zero,4003800 <__addsf3+0x450>
 4003754:	2149883a 	add	r4,r4,r5
 4003758:	3021883a 	mov	r16,r6
 400375c:	003f8606 	br	4003578 <__ram_exceptions_end+0xfbfc3330>
 4003760:	20001b1e 	bne	r4,zero,40037d0 <__addsf3+0x420>
 4003764:	28003926 	beq	r5,zero,400384c <__addsf3+0x49c>
 4003768:	2809883a 	mov	r4,r5
 400376c:	3823883a 	mov	r17,r7
 4003770:	04003fc4 	movi	r16,255
 4003774:	003f2506 	br	400340c <__ram_exceptions_end+0xfbfc31c4>
 4003778:	01c03fc4 	movi	r7,255
 400377c:	31c02226 	beq	r6,r7,4003808 <__addsf3+0x458>
 4003780:	00c7c83a 	sub	r3,zero,r3
 4003784:	21010034 	orhi	r4,r4,1024
 4003788:	01c006c4 	movi	r7,27
 400378c:	38c03616 	blt	r7,r3,4003868 <__addsf3+0x4b8>
 4003790:	01c00804 	movi	r7,32
 4003794:	38cfc83a 	sub	r7,r7,r3
 4003798:	21ce983a 	sll	r7,r4,r7
 400379c:	20c6d83a 	srl	r3,r4,r3
 40037a0:	3808c03a 	cmpne	r4,r7,zero
 40037a4:	1906b03a 	or	r3,r3,r4
 40037a8:	1949883a 	add	r4,r3,r5
 40037ac:	3021883a 	mov	r16,r6
 40037b0:	003f7106 	br	4003578 <__ram_exceptions_end+0xfbfc3330>
 40037b4:	283f1526 	beq	r5,zero,400340c <__ram_exceptions_end+0xfbfc31c4>
 40037b8:	2145c83a 	sub	r2,r4,r5
 40037bc:	10c1002c 	andhi	r3,r2,1024
 40037c0:	183f4f26 	beq	r3,zero,4003500 <__ram_exceptions_end+0xfbfc32b8>
 40037c4:	2909c83a 	sub	r4,r5,r4
 40037c8:	3823883a 	mov	r17,r7
 40037cc:	003f0f06 	br	400340c <__ram_exceptions_end+0xfbfc31c4>
 40037d0:	28001a26 	beq	r5,zero,400383c <__addsf3+0x48c>
 40037d4:	2008d0fa 	srli	r4,r4,3
 40037d8:	2080102c 	andhi	r2,r4,64
 40037dc:	10000526 	beq	r2,zero,40037f4 <__addsf3+0x444>
 40037e0:	280ad0fa 	srli	r5,r5,3
 40037e4:	2880102c 	andhi	r2,r5,64
 40037e8:	1000021e 	bne	r2,zero,40037f4 <__addsf3+0x444>
 40037ec:	2809883a 	mov	r4,r5
 40037f0:	3823883a 	mov	r17,r7
 40037f4:	200890fa 	slli	r4,r4,3
 40037f8:	04003fc4 	movi	r16,255
 40037fc:	003f0306 	br	400340c <__ram_exceptions_end+0xfbfc31c4>
 4003800:	01c03fc4 	movi	r7,255
 4003804:	31ffe01e 	bne	r6,r7,4003788 <__ram_exceptions_end+0xfbfc3540>
 4003808:	2809883a 	mov	r4,r5
 400380c:	3021883a 	mov	r16,r6
 4003810:	003efe06 	br	400340c <__ram_exceptions_end+0xfbfc31c4>
 4003814:	20001126 	beq	r4,zero,400385c <__addsf3+0x4ac>
 4003818:	28000826 	beq	r5,zero,400383c <__addsf3+0x48c>
 400381c:	2008d0fa 	srli	r4,r4,3
 4003820:	2080102c 	andhi	r2,r4,64
 4003824:	103ff326 	beq	r2,zero,40037f4 <__ram_exceptions_end+0xfbfc35ac>
 4003828:	280ad0fa 	srli	r5,r5,3
 400382c:	2880102c 	andhi	r2,r5,64
 4003830:	103ff01e 	bne	r2,zero,40037f4 <__ram_exceptions_end+0xfbfc35ac>
 4003834:	2809883a 	mov	r4,r5
 4003838:	003fee06 	br	40037f4 <__ram_exceptions_end+0xfbfc35ac>
 400383c:	04003fc4 	movi	r16,255
 4003840:	003ef206 	br	400340c <__ram_exceptions_end+0xfbfc31c4>
 4003844:	01000044 	movi	r4,1
 4003848:	003f9706 	br	40036a8 <__ram_exceptions_end+0xfbfc3460>
 400384c:	0005883a 	mov	r2,zero
 4003850:	003f3406 	br	4003524 <__ram_exceptions_end+0xfbfc32dc>
 4003854:	2809883a 	mov	r4,r5
 4003858:	003eec06 	br	400340c <__ram_exceptions_end+0xfbfc31c4>
 400385c:	2809883a 	mov	r4,r5
 4003860:	04003fc4 	movi	r16,255
 4003864:	003ee906 	br	400340c <__ram_exceptions_end+0xfbfc31c4>
 4003868:	00c00044 	movi	r3,1
 400386c:	003fce06 	br	40037a8 <__ram_exceptions_end+0xfbfc3560>
 4003870:	0005883a 	mov	r2,zero
 4003874:	003f4e06 	br	40035b0 <__ram_exceptions_end+0xfbfc3368>

04003878 <__divsf3>:
 4003878:	defff504 	addi	sp,sp,-44
 400387c:	200cd5fa 	srli	r6,r4,23
 4003880:	dcc00415 	stw	r19,16(sp)
 4003884:	2026d7fa 	srli	r19,r4,31
 4003888:	00c02034 	movhi	r3,128
 400388c:	dd800715 	stw	r22,28(sp)
 4003890:	dd000515 	stw	r20,20(sp)
 4003894:	dc800315 	stw	r18,12(sp)
 4003898:	18ffffc4 	addi	r3,r3,-1
 400389c:	dfc00a15 	stw	ra,40(sp)
 40038a0:	df000915 	stw	fp,36(sp)
 40038a4:	ddc00815 	stw	r23,32(sp)
 40038a8:	dd400615 	stw	r21,24(sp)
 40038ac:	dc400215 	stw	r17,8(sp)
 40038b0:	dc000115 	stw	r16,4(sp)
 40038b4:	35003fcc 	andi	r20,r6,255
 40038b8:	1924703a 	and	r18,r3,r4
 40038bc:	9d803fcc 	andi	r22,r19,255
 40038c0:	a0005226 	beq	r20,zero,4003a0c <__divsf3+0x194>
 40038c4:	00803fc4 	movi	r2,255
 40038c8:	a0802e26 	beq	r20,r2,4003984 <__divsf3+0x10c>
 40038cc:	91002034 	orhi	r4,r18,128
 40038d0:	202490fa 	slli	r18,r4,3
 40038d4:	a53fe044 	addi	r20,r20,-127
 40038d8:	0021883a 	mov	r16,zero
 40038dc:	002f883a 	mov	r23,zero
 40038e0:	280cd5fa 	srli	r6,r5,23
 40038e4:	282ad7fa 	srli	r21,r5,31
 40038e8:	00c02034 	movhi	r3,128
 40038ec:	18ffffc4 	addi	r3,r3,-1
 40038f0:	31803fcc 	andi	r6,r6,255
 40038f4:	1962703a 	and	r17,r3,r5
 40038f8:	af003fcc 	andi	fp,r21,255
 40038fc:	30004a26 	beq	r6,zero,4003a28 <__divsf3+0x1b0>
 4003900:	00803fc4 	movi	r2,255
 4003904:	30804526 	beq	r6,r2,4003a1c <__divsf3+0x1a4>
 4003908:	89402034 	orhi	r5,r17,128
 400390c:	282290fa 	slli	r17,r5,3
 4003910:	31bfe044 	addi	r6,r6,-127
 4003914:	000b883a 	mov	r5,zero
 4003918:	2c20b03a 	or	r16,r5,r16
 400391c:	802090ba 	slli	r16,r16,2
 4003920:	00810034 	movhi	r2,1024
 4003924:	108e5104 	addi	r2,r2,14660
 4003928:	80a1883a 	add	r16,r16,r2
 400392c:	81000017 	ldw	r4,0(r16)
 4003930:	9d46f03a 	xor	r3,r19,r21
 4003934:	180f883a 	mov	r7,r3
 4003938:	18803fcc 	andi	r2,r3,255
 400393c:	a18dc83a 	sub	r6,r20,r6
 4003940:	2000683a 	jmp	r4
 4003944:	04003b28 	cmpgeui	r16,zero,236
 4003948:	040039ac 	andhi	r16,zero,230
 400394c:	04003b1c 	xori	r16,zero,236
 4003950:	04003998 	cmpnei	r16,zero,230
 4003954:	04003b1c 	xori	r16,zero,236
 4003958:	04003af4 	movhi	r16,235
 400395c:	04003b1c 	xori	r16,zero,236
 4003960:	04003998 	cmpnei	r16,zero,230
 4003964:	040039ac 	andhi	r16,zero,230
 4003968:	040039ac 	andhi	r16,zero,230
 400396c:	04003af4 	movhi	r16,235
 4003970:	04003998 	cmpnei	r16,zero,230
 4003974:	04003c08 	cmpgei	r16,zero,240
 4003978:	04003c08 	cmpgei	r16,zero,240
 400397c:	04003c08 	cmpgei	r16,zero,240
 4003980:	04003bbc 	xorhi	r16,zero,238
 4003984:	9000581e 	bne	r18,zero,4003ae8 <__divsf3+0x270>
 4003988:	04000204 	movi	r16,8
 400398c:	05c00084 	movi	r23,2
 4003990:	003fd306 	br	40038e0 <__ram_exceptions_end+0xfbfc3698>
 4003994:	0023883a 	mov	r17,zero
 4003998:	e02d883a 	mov	r22,fp
 400399c:	282f883a 	mov	r23,r5
 40039a0:	00800084 	movi	r2,2
 40039a4:	b8808f1e 	bne	r23,r2,4003be4 <__divsf3+0x36c>
 40039a8:	b005883a 	mov	r2,r22
 40039ac:	11c0004c 	andi	r7,r2,1
 40039b0:	013fffc4 	movi	r4,-1
 40039b4:	000d883a 	mov	r6,zero
 40039b8:	21003fcc 	andi	r4,r4,255
 40039bc:	200895fa 	slli	r4,r4,23
 40039c0:	38803fcc 	andi	r2,r7,255
 40039c4:	00c02034 	movhi	r3,128
 40039c8:	100497fa 	slli	r2,r2,31
 40039cc:	18ffffc4 	addi	r3,r3,-1
 40039d0:	30c6703a 	and	r3,r6,r3
 40039d4:	1906b03a 	or	r3,r3,r4
 40039d8:	1884b03a 	or	r2,r3,r2
 40039dc:	dfc00a17 	ldw	ra,40(sp)
 40039e0:	df000917 	ldw	fp,36(sp)
 40039e4:	ddc00817 	ldw	r23,32(sp)
 40039e8:	dd800717 	ldw	r22,28(sp)
 40039ec:	dd400617 	ldw	r21,24(sp)
 40039f0:	dd000517 	ldw	r20,20(sp)
 40039f4:	dcc00417 	ldw	r19,16(sp)
 40039f8:	dc800317 	ldw	r18,12(sp)
 40039fc:	dc400217 	ldw	r17,8(sp)
 4003a00:	dc000117 	ldw	r16,4(sp)
 4003a04:	dec00b04 	addi	sp,sp,44
 4003a08:	f800283a 	ret
 4003a0c:	90002b1e 	bne	r18,zero,4003abc <__divsf3+0x244>
 4003a10:	04000104 	movi	r16,4
 4003a14:	05c00044 	movi	r23,1
 4003a18:	003fb106 	br	40038e0 <__ram_exceptions_end+0xfbfc3698>
 4003a1c:	8800251e 	bne	r17,zero,4003ab4 <__divsf3+0x23c>
 4003a20:	01400084 	movi	r5,2
 4003a24:	00000206 	br	4003a30 <__divsf3+0x1b8>
 4003a28:	88001a1e 	bne	r17,zero,4003a94 <__divsf3+0x21c>
 4003a2c:	01400044 	movi	r5,1
 4003a30:	8160b03a 	or	r16,r16,r5
 4003a34:	802090ba 	slli	r16,r16,2
 4003a38:	00c10034 	movhi	r3,1024
 4003a3c:	18ce9504 	addi	r3,r3,14932
 4003a40:	80e1883a 	add	r16,r16,r3
 4003a44:	80c00017 	ldw	r3,0(r16)
 4003a48:	9d44f03a 	xor	r2,r19,r21
 4003a4c:	a18dc83a 	sub	r6,r20,r6
 4003a50:	1800683a 	jmp	r3
 4003a54:	040039ac 	andhi	r16,zero,230
 4003a58:	040039ac 	andhi	r16,zero,230
 4003a5c:	04003bf8 	rdprs	r16,zero,239
 4003a60:	04003994 	movui	r16,230
 4003a64:	04003bf8 	rdprs	r16,zero,239
 4003a68:	04003af4 	movhi	r16,235
 4003a6c:	04003bf8 	rdprs	r16,zero,239
 4003a70:	04003994 	movui	r16,230
 4003a74:	040039ac 	andhi	r16,zero,230
 4003a78:	040039ac 	andhi	r16,zero,230
 4003a7c:	04003af4 	movhi	r16,235
 4003a80:	04003994 	movui	r16,230
 4003a84:	04003c08 	cmpgei	r16,zero,240
 4003a88:	04003c08 	cmpgei	r16,zero,240
 4003a8c:	04003c08 	cmpgei	r16,zero,240
 4003a90:	04003c20 	cmpeqi	r16,zero,240
 4003a94:	8809883a 	mov	r4,r17
 4003a98:	40065b80 	call	40065b8 <__clzsi2>
 4003a9c:	10fffec4 	addi	r3,r2,-5
 4003aa0:	10801d84 	addi	r2,r2,118
 4003aa4:	88e2983a 	sll	r17,r17,r3
 4003aa8:	008dc83a 	sub	r6,zero,r2
 4003aac:	000b883a 	mov	r5,zero
 4003ab0:	003f9906 	br	4003918 <__ram_exceptions_end+0xfbfc36d0>
 4003ab4:	014000c4 	movi	r5,3
 4003ab8:	003f9706 	br	4003918 <__ram_exceptions_end+0xfbfc36d0>
 4003abc:	9009883a 	mov	r4,r18
 4003ac0:	d9400015 	stw	r5,0(sp)
 4003ac4:	40065b80 	call	40065b8 <__clzsi2>
 4003ac8:	10fffec4 	addi	r3,r2,-5
 4003acc:	11801d84 	addi	r6,r2,118
 4003ad0:	90e4983a 	sll	r18,r18,r3
 4003ad4:	01a9c83a 	sub	r20,zero,r6
 4003ad8:	0021883a 	mov	r16,zero
 4003adc:	002f883a 	mov	r23,zero
 4003ae0:	d9400017 	ldw	r5,0(sp)
 4003ae4:	003f7e06 	br	40038e0 <__ram_exceptions_end+0xfbfc3698>
 4003ae8:	04000304 	movi	r16,12
 4003aec:	05c000c4 	movi	r23,3
 4003af0:	003f7b06 	br	40038e0 <__ram_exceptions_end+0xfbfc3698>
 4003af4:	01802034 	movhi	r6,128
 4003af8:	000f883a 	mov	r7,zero
 4003afc:	31bfffc4 	addi	r6,r6,-1
 4003b00:	013fffc4 	movi	r4,-1
 4003b04:	003fac06 	br	40039b8 <__ram_exceptions_end+0xfbfc3770>
 4003b08:	01400044 	movi	r5,1
 4003b0c:	2909c83a 	sub	r4,r5,r4
 4003b10:	00c006c4 	movi	r3,27
 4003b14:	19004b0e 	bge	r3,r4,4003c44 <__divsf3+0x3cc>
 4003b18:	114e703a 	and	r7,r2,r5
 4003b1c:	0009883a 	mov	r4,zero
 4003b20:	000d883a 	mov	r6,zero
 4003b24:	003fa406 	br	40039b8 <__ram_exceptions_end+0xfbfc3770>
 4003b28:	9006917a 	slli	r3,r18,5
 4003b2c:	8822917a 	slli	r17,r17,5
 4003b30:	1c40372e 	bgeu	r3,r17,4003c10 <__divsf3+0x398>
 4003b34:	31bfffc4 	addi	r6,r6,-1
 4003b38:	010006c4 	movi	r4,27
 4003b3c:	000b883a 	mov	r5,zero
 4003b40:	180f883a 	mov	r7,r3
 4003b44:	294b883a 	add	r5,r5,r5
 4003b48:	18c7883a 	add	r3,r3,r3
 4003b4c:	38000116 	blt	r7,zero,4003b54 <__divsf3+0x2dc>
 4003b50:	1c400236 	bltu	r3,r17,4003b5c <__divsf3+0x2e4>
 4003b54:	1c47c83a 	sub	r3,r3,r17
 4003b58:	29400054 	ori	r5,r5,1
 4003b5c:	213fffc4 	addi	r4,r4,-1
 4003b60:	203ff71e 	bne	r4,zero,4003b40 <__ram_exceptions_end+0xfbfc38f8>
 4003b64:	1806c03a 	cmpne	r3,r3,zero
 4003b68:	1962b03a 	or	r17,r3,r5
 4003b6c:	31001fc4 	addi	r4,r6,127
 4003b70:	013fe50e 	bge	zero,r4,4003b08 <__ram_exceptions_end+0xfbfc38c0>
 4003b74:	88c001cc 	andi	r3,r17,7
 4003b78:	18000426 	beq	r3,zero,4003b8c <__divsf3+0x314>
 4003b7c:	88c003cc 	andi	r3,r17,15
 4003b80:	01400104 	movi	r5,4
 4003b84:	19400126 	beq	r3,r5,4003b8c <__divsf3+0x314>
 4003b88:	8963883a 	add	r17,r17,r5
 4003b8c:	88c2002c 	andhi	r3,r17,2048
 4003b90:	18000426 	beq	r3,zero,4003ba4 <__divsf3+0x32c>
 4003b94:	00fe0034 	movhi	r3,63488
 4003b98:	18ffffc4 	addi	r3,r3,-1
 4003b9c:	31002004 	addi	r4,r6,128
 4003ba0:	88e2703a 	and	r17,r17,r3
 4003ba4:	00c03f84 	movi	r3,254
 4003ba8:	193f8016 	blt	r3,r4,40039ac <__ram_exceptions_end+0xfbfc3764>
 4003bac:	880c91ba 	slli	r6,r17,6
 4003bb0:	11c0004c 	andi	r7,r2,1
 4003bb4:	300cd27a 	srli	r6,r6,9
 4003bb8:	003f7f06 	br	40039b8 <__ram_exceptions_end+0xfbfc3770>
 4003bbc:	9080102c 	andhi	r2,r18,64
 4003bc0:	10000226 	beq	r2,zero,4003bcc <__divsf3+0x354>
 4003bc4:	8880102c 	andhi	r2,r17,64
 4003bc8:	10001826 	beq	r2,zero,4003c2c <__divsf3+0x3b4>
 4003bcc:	00802034 	movhi	r2,128
 4003bd0:	91801034 	orhi	r6,r18,64
 4003bd4:	10bfffc4 	addi	r2,r2,-1
 4003bd8:	980f883a 	mov	r7,r19
 4003bdc:	308c703a 	and	r6,r6,r2
 4003be0:	003fc706 	br	4003b00 <__ram_exceptions_end+0xfbfc38b8>
 4003be4:	008000c4 	movi	r2,3
 4003be8:	b8802d26 	beq	r23,r2,4003ca0 <__divsf3+0x428>
 4003bec:	00c00044 	movi	r3,1
 4003bf0:	b005883a 	mov	r2,r22
 4003bf4:	b8ffdd1e 	bne	r23,r3,4003b6c <__ram_exceptions_end+0xfbfc3924>
 4003bf8:	11c0004c 	andi	r7,r2,1
 4003bfc:	0009883a 	mov	r4,zero
 4003c00:	000d883a 	mov	r6,zero
 4003c04:	003f6c06 	br	40039b8 <__ram_exceptions_end+0xfbfc3770>
 4003c08:	9023883a 	mov	r17,r18
 4003c0c:	003f6406 	br	40039a0 <__ram_exceptions_end+0xfbfc3758>
 4003c10:	1c47c83a 	sub	r3,r3,r17
 4003c14:	01000684 	movi	r4,26
 4003c18:	01400044 	movi	r5,1
 4003c1c:	003fc806 	br	4003b40 <__ram_exceptions_end+0xfbfc38f8>
 4003c20:	9080102c 	andhi	r2,r18,64
 4003c24:	103fe926 	beq	r2,zero,4003bcc <__ram_exceptions_end+0xfbfc3984>
 4003c28:	0023883a 	mov	r17,zero
 4003c2c:	00802034 	movhi	r2,128
 4003c30:	89801034 	orhi	r6,r17,64
 4003c34:	10bfffc4 	addi	r2,r2,-1
 4003c38:	a80f883a 	mov	r7,r21
 4003c3c:	308c703a 	and	r6,r6,r2
 4003c40:	003faf06 	br	4003b00 <__ram_exceptions_end+0xfbfc38b8>
 4003c44:	01c00804 	movi	r7,32
 4003c48:	390fc83a 	sub	r7,r7,r4
 4003c4c:	89ce983a 	sll	r7,r17,r7
 4003c50:	890ad83a 	srl	r5,r17,r4
 4003c54:	380ec03a 	cmpne	r7,r7,zero
 4003c58:	29cab03a 	or	r5,r5,r7
 4003c5c:	28c001cc 	andi	r3,r5,7
 4003c60:	18000426 	beq	r3,zero,4003c74 <__divsf3+0x3fc>
 4003c64:	28c003cc 	andi	r3,r5,15
 4003c68:	01000104 	movi	r4,4
 4003c6c:	19000126 	beq	r3,r4,4003c74 <__divsf3+0x3fc>
 4003c70:	290b883a 	add	r5,r5,r4
 4003c74:	28c1002c 	andhi	r3,r5,1024
 4003c78:	18000426 	beq	r3,zero,4003c8c <__divsf3+0x414>
 4003c7c:	11c0004c 	andi	r7,r2,1
 4003c80:	01000044 	movi	r4,1
 4003c84:	000d883a 	mov	r6,zero
 4003c88:	003f4b06 	br	40039b8 <__ram_exceptions_end+0xfbfc3770>
 4003c8c:	280a91ba 	slli	r5,r5,6
 4003c90:	11c0004c 	andi	r7,r2,1
 4003c94:	0009883a 	mov	r4,zero
 4003c98:	280cd27a 	srli	r6,r5,9
 4003c9c:	003f4606 	br	40039b8 <__ram_exceptions_end+0xfbfc3770>
 4003ca0:	00802034 	movhi	r2,128
 4003ca4:	89801034 	orhi	r6,r17,64
 4003ca8:	10bfffc4 	addi	r2,r2,-1
 4003cac:	b00f883a 	mov	r7,r22
 4003cb0:	308c703a 	and	r6,r6,r2
 4003cb4:	003f9206 	br	4003b00 <__ram_exceptions_end+0xfbfc38b8>

04003cb8 <__eqsf2>:
 4003cb8:	2006d5fa 	srli	r3,r4,23
 4003cbc:	280cd5fa 	srli	r6,r5,23
 4003cc0:	01c02034 	movhi	r7,128
 4003cc4:	39ffffc4 	addi	r7,r7,-1
 4003cc8:	18c03fcc 	andi	r3,r3,255
 4003ccc:	02003fc4 	movi	r8,255
 4003cd0:	3904703a 	and	r2,r7,r4
 4003cd4:	31803fcc 	andi	r6,r6,255
 4003cd8:	394e703a 	and	r7,r7,r5
 4003cdc:	2008d7fa 	srli	r4,r4,31
 4003ce0:	280ad7fa 	srli	r5,r5,31
 4003ce4:	1a000d26 	beq	r3,r8,4003d1c <__eqsf2+0x64>
 4003ce8:	02003fc4 	movi	r8,255
 4003cec:	32000826 	beq	r6,r8,4003d10 <__eqsf2+0x58>
 4003cf0:	19800226 	beq	r3,r6,4003cfc <__eqsf2+0x44>
 4003cf4:	00800044 	movi	r2,1
 4003cf8:	f800283a 	ret
 4003cfc:	11fffd1e 	bne	r2,r7,4003cf4 <__ram_exceptions_end+0xfbfc3aac>
 4003d00:	21400926 	beq	r4,r5,4003d28 <__eqsf2+0x70>
 4003d04:	183ffb1e 	bne	r3,zero,4003cf4 <__ram_exceptions_end+0xfbfc3aac>
 4003d08:	1004c03a 	cmpne	r2,r2,zero
 4003d0c:	f800283a 	ret
 4003d10:	383ff726 	beq	r7,zero,4003cf0 <__ram_exceptions_end+0xfbfc3aa8>
 4003d14:	00800044 	movi	r2,1
 4003d18:	f800283a 	ret
 4003d1c:	103ff226 	beq	r2,zero,4003ce8 <__ram_exceptions_end+0xfbfc3aa0>
 4003d20:	00800044 	movi	r2,1
 4003d24:	f800283a 	ret
 4003d28:	0005883a 	mov	r2,zero
 4003d2c:	f800283a 	ret

04003d30 <__gesf2>:
 4003d30:	2004d5fa 	srli	r2,r4,23
 4003d34:	2806d5fa 	srli	r3,r5,23
 4003d38:	01802034 	movhi	r6,128
 4003d3c:	31bfffc4 	addi	r6,r6,-1
 4003d40:	10803fcc 	andi	r2,r2,255
 4003d44:	01c03fc4 	movi	r7,255
 4003d48:	3110703a 	and	r8,r6,r4
 4003d4c:	18c03fcc 	andi	r3,r3,255
 4003d50:	314c703a 	and	r6,r6,r5
 4003d54:	2008d7fa 	srli	r4,r4,31
 4003d58:	280ad7fa 	srli	r5,r5,31
 4003d5c:	11c01926 	beq	r2,r7,4003dc4 <__gesf2+0x94>
 4003d60:	01c03fc4 	movi	r7,255
 4003d64:	19c00f26 	beq	r3,r7,4003da4 <__gesf2+0x74>
 4003d68:	1000061e 	bne	r2,zero,4003d84 <__gesf2+0x54>
 4003d6c:	400f003a 	cmpeq	r7,r8,zero
 4003d70:	1800071e 	bne	r3,zero,4003d90 <__gesf2+0x60>
 4003d74:	3000061e 	bne	r6,zero,4003d90 <__gesf2+0x60>
 4003d78:	0005883a 	mov	r2,zero
 4003d7c:	40000e1e 	bne	r8,zero,4003db8 <__gesf2+0x88>
 4003d80:	f800283a 	ret
 4003d84:	18000a1e 	bne	r3,zero,4003db0 <__gesf2+0x80>
 4003d88:	30000b26 	beq	r6,zero,4003db8 <__gesf2+0x88>
 4003d8c:	000f883a 	mov	r7,zero
 4003d90:	29403fcc 	andi	r5,r5,255
 4003d94:	38000726 	beq	r7,zero,4003db4 <__gesf2+0x84>
 4003d98:	28000826 	beq	r5,zero,4003dbc <__gesf2+0x8c>
 4003d9c:	00800044 	movi	r2,1
 4003da0:	f800283a 	ret
 4003da4:	303ff026 	beq	r6,zero,4003d68 <__ram_exceptions_end+0xfbfc3b20>
 4003da8:	00bfff84 	movi	r2,-2
 4003dac:	f800283a 	ret
 4003db0:	29403fcc 	andi	r5,r5,255
 4003db4:	21400526 	beq	r4,r5,4003dcc <__gesf2+0x9c>
 4003db8:	203ff826 	beq	r4,zero,4003d9c <__ram_exceptions_end+0xfbfc3b54>
 4003dbc:	00bfffc4 	movi	r2,-1
 4003dc0:	f800283a 	ret
 4003dc4:	403fe626 	beq	r8,zero,4003d60 <__ram_exceptions_end+0xfbfc3b18>
 4003dc8:	003ff706 	br	4003da8 <__ram_exceptions_end+0xfbfc3b60>
 4003dcc:	18bffa16 	blt	r3,r2,4003db8 <__ram_exceptions_end+0xfbfc3b70>
 4003dd0:	10c00216 	blt	r2,r3,4003ddc <__gesf2+0xac>
 4003dd4:	323ff836 	bltu	r6,r8,4003db8 <__ram_exceptions_end+0xfbfc3b70>
 4003dd8:	4180022e 	bgeu	r8,r6,4003de4 <__gesf2+0xb4>
 4003ddc:	203fef1e 	bne	r4,zero,4003d9c <__ram_exceptions_end+0xfbfc3b54>
 4003de0:	003ff606 	br	4003dbc <__ram_exceptions_end+0xfbfc3b74>
 4003de4:	0005883a 	mov	r2,zero
 4003de8:	f800283a 	ret

04003dec <__lesf2>:
 4003dec:	2004d5fa 	srli	r2,r4,23
 4003df0:	280cd5fa 	srli	r6,r5,23
 4003df4:	00c02034 	movhi	r3,128
 4003df8:	18ffffc4 	addi	r3,r3,-1
 4003dfc:	10803fcc 	andi	r2,r2,255
 4003e00:	01c03fc4 	movi	r7,255
 4003e04:	1910703a 	and	r8,r3,r4
 4003e08:	31803fcc 	andi	r6,r6,255
 4003e0c:	1946703a 	and	r3,r3,r5
 4003e10:	2008d7fa 	srli	r4,r4,31
 4003e14:	280ad7fa 	srli	r5,r5,31
 4003e18:	11c01b26 	beq	r2,r7,4003e88 <__lesf2+0x9c>
 4003e1c:	01c03fc4 	movi	r7,255
 4003e20:	31c01126 	beq	r6,r7,4003e68 <__lesf2+0x7c>
 4003e24:	1000071e 	bne	r2,zero,4003e44 <__lesf2+0x58>
 4003e28:	400f003a 	cmpeq	r7,r8,zero
 4003e2c:	21003fcc 	andi	r4,r4,255
 4003e30:	3000081e 	bne	r6,zero,4003e54 <__lesf2+0x68>
 4003e34:	1800071e 	bne	r3,zero,4003e54 <__lesf2+0x68>
 4003e38:	0005883a 	mov	r2,zero
 4003e3c:	40000f1e 	bne	r8,zero,4003e7c <__lesf2+0x90>
 4003e40:	f800283a 	ret
 4003e44:	21003fcc 	andi	r4,r4,255
 4003e48:	30000a1e 	bne	r6,zero,4003e74 <__lesf2+0x88>
 4003e4c:	18000b26 	beq	r3,zero,4003e7c <__lesf2+0x90>
 4003e50:	000f883a 	mov	r7,zero
 4003e54:	29403fcc 	andi	r5,r5,255
 4003e58:	38000726 	beq	r7,zero,4003e78 <__lesf2+0x8c>
 4003e5c:	28000826 	beq	r5,zero,4003e80 <__lesf2+0x94>
 4003e60:	00800044 	movi	r2,1
 4003e64:	f800283a 	ret
 4003e68:	183fee26 	beq	r3,zero,4003e24 <__ram_exceptions_end+0xfbfc3bdc>
 4003e6c:	00800084 	movi	r2,2
 4003e70:	f800283a 	ret
 4003e74:	29403fcc 	andi	r5,r5,255
 4003e78:	21400626 	beq	r4,r5,4003e94 <__lesf2+0xa8>
 4003e7c:	203ff826 	beq	r4,zero,4003e60 <__ram_exceptions_end+0xfbfc3c18>
 4003e80:	00bfffc4 	movi	r2,-1
 4003e84:	f800283a 	ret
 4003e88:	403fe426 	beq	r8,zero,4003e1c <__ram_exceptions_end+0xfbfc3bd4>
 4003e8c:	00800084 	movi	r2,2
 4003e90:	f800283a 	ret
 4003e94:	30bff916 	blt	r6,r2,4003e7c <__ram_exceptions_end+0xfbfc3c34>
 4003e98:	11800216 	blt	r2,r6,4003ea4 <__lesf2+0xb8>
 4003e9c:	1a3ff736 	bltu	r3,r8,4003e7c <__ram_exceptions_end+0xfbfc3c34>
 4003ea0:	40c0022e 	bgeu	r8,r3,4003eac <__lesf2+0xc0>
 4003ea4:	203fee1e 	bne	r4,zero,4003e60 <__ram_exceptions_end+0xfbfc3c18>
 4003ea8:	003ff506 	br	4003e80 <__ram_exceptions_end+0xfbfc3c38>
 4003eac:	0005883a 	mov	r2,zero
 4003eb0:	f800283a 	ret

04003eb4 <__mulsf3>:
 4003eb4:	defff504 	addi	sp,sp,-44
 4003eb8:	dc000115 	stw	r16,4(sp)
 4003ebc:	2020d5fa 	srli	r16,r4,23
 4003ec0:	dd400615 	stw	r21,24(sp)
 4003ec4:	202ad7fa 	srli	r21,r4,31
 4003ec8:	dc800315 	stw	r18,12(sp)
 4003ecc:	04802034 	movhi	r18,128
 4003ed0:	df000915 	stw	fp,36(sp)
 4003ed4:	dd000515 	stw	r20,20(sp)
 4003ed8:	94bfffc4 	addi	r18,r18,-1
 4003edc:	dfc00a15 	stw	ra,40(sp)
 4003ee0:	ddc00815 	stw	r23,32(sp)
 4003ee4:	dd800715 	stw	r22,28(sp)
 4003ee8:	dcc00415 	stw	r19,16(sp)
 4003eec:	dc400215 	stw	r17,8(sp)
 4003ef0:	84003fcc 	andi	r16,r16,255
 4003ef4:	9124703a 	and	r18,r18,r4
 4003ef8:	a829883a 	mov	r20,r21
 4003efc:	af003fcc 	andi	fp,r21,255
 4003f00:	80005426 	beq	r16,zero,4004054 <__mulsf3+0x1a0>
 4003f04:	00803fc4 	movi	r2,255
 4003f08:	80802f26 	beq	r16,r2,4003fc8 <__mulsf3+0x114>
 4003f0c:	91002034 	orhi	r4,r18,128
 4003f10:	202490fa 	slli	r18,r4,3
 4003f14:	843fe044 	addi	r16,r16,-127
 4003f18:	0023883a 	mov	r17,zero
 4003f1c:	002f883a 	mov	r23,zero
 4003f20:	2804d5fa 	srli	r2,r5,23
 4003f24:	282cd7fa 	srli	r22,r5,31
 4003f28:	01002034 	movhi	r4,128
 4003f2c:	213fffc4 	addi	r4,r4,-1
 4003f30:	10803fcc 	andi	r2,r2,255
 4003f34:	2166703a 	and	r19,r4,r5
 4003f38:	b1803fcc 	andi	r6,r22,255
 4003f3c:	10004c26 	beq	r2,zero,4004070 <__mulsf3+0x1bc>
 4003f40:	00c03fc4 	movi	r3,255
 4003f44:	10c04726 	beq	r2,r3,4004064 <__mulsf3+0x1b0>
 4003f48:	99002034 	orhi	r4,r19,128
 4003f4c:	202690fa 	slli	r19,r4,3
 4003f50:	10bfe044 	addi	r2,r2,-127
 4003f54:	0007883a 	mov	r3,zero
 4003f58:	80a1883a 	add	r16,r16,r2
 4003f5c:	010003c4 	movi	r4,15
 4003f60:	1c44b03a 	or	r2,r3,r17
 4003f64:	b56af03a 	xor	r21,r22,r21
 4003f68:	81c00044 	addi	r7,r16,1
 4003f6c:	20806b36 	bltu	r4,r2,400411c <__mulsf3+0x268>
 4003f70:	100490ba 	slli	r2,r2,2
 4003f74:	01010034 	movhi	r4,1024
 4003f78:	210fe204 	addi	r4,r4,16264
 4003f7c:	1105883a 	add	r2,r2,r4
 4003f80:	10800017 	ldw	r2,0(r2)
 4003f84:	1000683a 	jmp	r2
 4003f88:	0400411c 	xori	r16,zero,260
 4003f8c:	04003fdc 	xori	r16,zero,255
 4003f90:	04003fdc 	xori	r16,zero,255
 4003f94:	04003fd8 	cmpnei	r16,zero,255
 4003f98:	04004100 	call	400410 <__alt_mem_new_sdram_controller_0-0x3bffbf0>
 4003f9c:	04004100 	call	400410 <__alt_mem_new_sdram_controller_0-0x3bffbf0>
 4003fa0:	040040ec 	andhi	r16,zero,259
 4003fa4:	04003fd8 	cmpnei	r16,zero,255
 4003fa8:	04004100 	call	400410 <__alt_mem_new_sdram_controller_0-0x3bffbf0>
 4003fac:	040040ec 	andhi	r16,zero,259
 4003fb0:	04004100 	call	400410 <__alt_mem_new_sdram_controller_0-0x3bffbf0>
 4003fb4:	04003fd8 	cmpnei	r16,zero,255
 4003fb8:	0400410c 	andi	r16,zero,260
 4003fbc:	0400410c 	andi	r16,zero,260
 4003fc0:	0400410c 	andi	r16,zero,260
 4003fc4:	040041e8 	cmpgeui	r16,zero,263
 4003fc8:	90003b1e 	bne	r18,zero,40040b8 <__mulsf3+0x204>
 4003fcc:	04400204 	movi	r17,8
 4003fd0:	05c00084 	movi	r23,2
 4003fd4:	003fd206 	br	4003f20 <__ram_exceptions_end+0xfbfc3cd8>
 4003fd8:	302b883a 	mov	r21,r6
 4003fdc:	00800084 	movi	r2,2
 4003fe0:	18802626 	beq	r3,r2,400407c <__mulsf3+0x1c8>
 4003fe4:	008000c4 	movi	r2,3
 4003fe8:	1880ab26 	beq	r3,r2,4004298 <__mulsf3+0x3e4>
 4003fec:	00800044 	movi	r2,1
 4003ff0:	1880a21e 	bne	r3,r2,400427c <__mulsf3+0x3c8>
 4003ff4:	a829883a 	mov	r20,r21
 4003ff8:	0007883a 	mov	r3,zero
 4003ffc:	0009883a 	mov	r4,zero
 4004000:	18803fcc 	andi	r2,r3,255
 4004004:	100695fa 	slli	r3,r2,23
 4004008:	a0803fcc 	andi	r2,r20,255
 400400c:	100a97fa 	slli	r5,r2,31
 4004010:	00802034 	movhi	r2,128
 4004014:	10bfffc4 	addi	r2,r2,-1
 4004018:	2084703a 	and	r2,r4,r2
 400401c:	10c4b03a 	or	r2,r2,r3
 4004020:	1144b03a 	or	r2,r2,r5
 4004024:	dfc00a17 	ldw	ra,40(sp)
 4004028:	df000917 	ldw	fp,36(sp)
 400402c:	ddc00817 	ldw	r23,32(sp)
 4004030:	dd800717 	ldw	r22,28(sp)
 4004034:	dd400617 	ldw	r21,24(sp)
 4004038:	dd000517 	ldw	r20,20(sp)
 400403c:	dcc00417 	ldw	r19,16(sp)
 4004040:	dc800317 	ldw	r18,12(sp)
 4004044:	dc400217 	ldw	r17,8(sp)
 4004048:	dc000117 	ldw	r16,4(sp)
 400404c:	dec00b04 	addi	sp,sp,44
 4004050:	f800283a 	ret
 4004054:	90000d1e 	bne	r18,zero,400408c <__mulsf3+0x1d8>
 4004058:	04400104 	movi	r17,4
 400405c:	05c00044 	movi	r23,1
 4004060:	003faf06 	br	4003f20 <__ram_exceptions_end+0xfbfc3cd8>
 4004064:	9806c03a 	cmpne	r3,r19,zero
 4004068:	18c00084 	addi	r3,r3,2
 400406c:	003fba06 	br	4003f58 <__ram_exceptions_end+0xfbfc3d10>
 4004070:	9800141e 	bne	r19,zero,40040c4 <__mulsf3+0x210>
 4004074:	00c00044 	movi	r3,1
 4004078:	003fb706 	br	4003f58 <__ram_exceptions_end+0xfbfc3d10>
 400407c:	a829883a 	mov	r20,r21
 4004080:	00ffffc4 	movi	r3,-1
 4004084:	0009883a 	mov	r4,zero
 4004088:	003fdd06 	br	4004000 <__ram_exceptions_end+0xfbfc3db8>
 400408c:	9009883a 	mov	r4,r18
 4004090:	d9400015 	stw	r5,0(sp)
 4004094:	40065b80 	call	40065b8 <__clzsi2>
 4004098:	10fffec4 	addi	r3,r2,-5
 400409c:	10801d84 	addi	r2,r2,118
 40040a0:	90e4983a 	sll	r18,r18,r3
 40040a4:	00a1c83a 	sub	r16,zero,r2
 40040a8:	0023883a 	mov	r17,zero
 40040ac:	002f883a 	mov	r23,zero
 40040b0:	d9400017 	ldw	r5,0(sp)
 40040b4:	003f9a06 	br	4003f20 <__ram_exceptions_end+0xfbfc3cd8>
 40040b8:	04400304 	movi	r17,12
 40040bc:	05c000c4 	movi	r23,3
 40040c0:	003f9706 	br	4003f20 <__ram_exceptions_end+0xfbfc3cd8>
 40040c4:	9809883a 	mov	r4,r19
 40040c8:	d9800015 	stw	r6,0(sp)
 40040cc:	40065b80 	call	40065b8 <__clzsi2>
 40040d0:	10fffec4 	addi	r3,r2,-5
 40040d4:	10801d84 	addi	r2,r2,118
 40040d8:	98e6983a 	sll	r19,r19,r3
 40040dc:	0085c83a 	sub	r2,zero,r2
 40040e0:	0007883a 	mov	r3,zero
 40040e4:	d9800017 	ldw	r6,0(sp)
 40040e8:	003f9b06 	br	4003f58 <__ram_exceptions_end+0xfbfc3d10>
 40040ec:	01002034 	movhi	r4,128
 40040f0:	0029883a 	mov	r20,zero
 40040f4:	213fffc4 	addi	r4,r4,-1
 40040f8:	00ffffc4 	movi	r3,-1
 40040fc:	003fc006 	br	4004000 <__ram_exceptions_end+0xfbfc3db8>
 4004100:	9027883a 	mov	r19,r18
 4004104:	b807883a 	mov	r3,r23
 4004108:	003fb406 	br	4003fdc <__ram_exceptions_end+0xfbfc3d94>
 400410c:	9027883a 	mov	r19,r18
 4004110:	e02b883a 	mov	r21,fp
 4004114:	b807883a 	mov	r3,r23
 4004118:	003fb006 	br	4003fdc <__ram_exceptions_end+0xfbfc3d94>
 400411c:	9004d43a 	srli	r2,r18,16
 4004120:	9810d43a 	srli	r8,r19,16
 4004124:	94bfffcc 	andi	r18,r18,65535
 4004128:	993fffcc 	andi	r4,r19,65535
 400412c:	910d383a 	mul	r6,r18,r4
 4004130:	20a7383a 	mul	r19,r4,r2
 4004134:	9225383a 	mul	r18,r18,r8
 4004138:	3006d43a 	srli	r3,r6,16
 400413c:	1211383a 	mul	r8,r2,r8
 4004140:	94e5883a 	add	r18,r18,r19
 4004144:	1c87883a 	add	r3,r3,r18
 4004148:	1cc0022e 	bgeu	r3,r19,4004154 <__mulsf3+0x2a0>
 400414c:	00800074 	movhi	r2,1
 4004150:	4091883a 	add	r8,r8,r2
 4004154:	1804943a 	slli	r2,r3,16
 4004158:	31bfffcc 	andi	r6,r6,65535
 400415c:	1806d43a 	srli	r3,r3,16
 4004160:	1185883a 	add	r2,r2,r6
 4004164:	102691ba 	slli	r19,r2,6
 4004168:	1a07883a 	add	r3,r3,r8
 400416c:	1004d6ba 	srli	r2,r2,26
 4004170:	180891ba 	slli	r4,r3,6
 4004174:	9826c03a 	cmpne	r19,r19,zero
 4004178:	9884b03a 	or	r2,r19,r2
 400417c:	1126b03a 	or	r19,r2,r4
 4004180:	9882002c 	andhi	r2,r19,2048
 4004184:	10000426 	beq	r2,zero,4004198 <__mulsf3+0x2e4>
 4004188:	9804d07a 	srli	r2,r19,1
 400418c:	9900004c 	andi	r4,r19,1
 4004190:	3821883a 	mov	r16,r7
 4004194:	1126b03a 	or	r19,r2,r4
 4004198:	80c01fc4 	addi	r3,r16,127
 400419c:	00c0210e 	bge	zero,r3,4004224 <__mulsf3+0x370>
 40041a0:	988001cc 	andi	r2,r19,7
 40041a4:	10000426 	beq	r2,zero,40041b8 <__mulsf3+0x304>
 40041a8:	988003cc 	andi	r2,r19,15
 40041ac:	01000104 	movi	r4,4
 40041b0:	11000126 	beq	r2,r4,40041b8 <__mulsf3+0x304>
 40041b4:	9927883a 	add	r19,r19,r4
 40041b8:	9882002c 	andhi	r2,r19,2048
 40041bc:	10000426 	beq	r2,zero,40041d0 <__mulsf3+0x31c>
 40041c0:	00be0034 	movhi	r2,63488
 40041c4:	10bfffc4 	addi	r2,r2,-1
 40041c8:	80c02004 	addi	r3,r16,128
 40041cc:	98a6703a 	and	r19,r19,r2
 40041d0:	00803f84 	movi	r2,254
 40041d4:	10ffa916 	blt	r2,r3,400407c <__ram_exceptions_end+0xfbfc3e34>
 40041d8:	980891ba 	slli	r4,r19,6
 40041dc:	a829883a 	mov	r20,r21
 40041e0:	2008d27a 	srli	r4,r4,9
 40041e4:	003f8606 	br	4004000 <__ram_exceptions_end+0xfbfc3db8>
 40041e8:	9080102c 	andhi	r2,r18,64
 40041ec:	10000826 	beq	r2,zero,4004210 <__mulsf3+0x35c>
 40041f0:	9880102c 	andhi	r2,r19,64
 40041f4:	1000061e 	bne	r2,zero,4004210 <__mulsf3+0x35c>
 40041f8:	00802034 	movhi	r2,128
 40041fc:	99001034 	orhi	r4,r19,64
 4004200:	10bfffc4 	addi	r2,r2,-1
 4004204:	b029883a 	mov	r20,r22
 4004208:	2088703a 	and	r4,r4,r2
 400420c:	003fba06 	br	40040f8 <__ram_exceptions_end+0xfbfc3eb0>
 4004210:	00802034 	movhi	r2,128
 4004214:	91001034 	orhi	r4,r18,64
 4004218:	10bfffc4 	addi	r2,r2,-1
 400421c:	2088703a 	and	r4,r4,r2
 4004220:	003fb506 	br	40040f8 <__ram_exceptions_end+0xfbfc3eb0>
 4004224:	00800044 	movi	r2,1
 4004228:	10c7c83a 	sub	r3,r2,r3
 400422c:	008006c4 	movi	r2,27
 4004230:	10ff7016 	blt	r2,r3,4003ff4 <__ram_exceptions_end+0xfbfc3dac>
 4004234:	00800804 	movi	r2,32
 4004238:	10c5c83a 	sub	r2,r2,r3
 400423c:	9884983a 	sll	r2,r19,r2
 4004240:	98c6d83a 	srl	r3,r19,r3
 4004244:	1004c03a 	cmpne	r2,r2,zero
 4004248:	1884b03a 	or	r2,r3,r2
 400424c:	10c001cc 	andi	r3,r2,7
 4004250:	18000426 	beq	r3,zero,4004264 <__mulsf3+0x3b0>
 4004254:	10c003cc 	andi	r3,r2,15
 4004258:	01000104 	movi	r4,4
 400425c:	19000126 	beq	r3,r4,4004264 <__mulsf3+0x3b0>
 4004260:	1105883a 	add	r2,r2,r4
 4004264:	10c1002c 	andhi	r3,r2,1024
 4004268:	18000626 	beq	r3,zero,4004284 <__mulsf3+0x3d0>
 400426c:	a829883a 	mov	r20,r21
 4004270:	00c00044 	movi	r3,1
 4004274:	0009883a 	mov	r4,zero
 4004278:	003f6106 	br	4004000 <__ram_exceptions_end+0xfbfc3db8>
 400427c:	3821883a 	mov	r16,r7
 4004280:	003fc506 	br	4004198 <__ram_exceptions_end+0xfbfc3f50>
 4004284:	100491ba 	slli	r2,r2,6
 4004288:	a829883a 	mov	r20,r21
 400428c:	0007883a 	mov	r3,zero
 4004290:	1008d27a 	srli	r4,r2,9
 4004294:	003f5a06 	br	4004000 <__ram_exceptions_end+0xfbfc3db8>
 4004298:	00802034 	movhi	r2,128
 400429c:	99001034 	orhi	r4,r19,64
 40042a0:	10bfffc4 	addi	r2,r2,-1
 40042a4:	a829883a 	mov	r20,r21
 40042a8:	2088703a 	and	r4,r4,r2
 40042ac:	003f9206 	br	40040f8 <__ram_exceptions_end+0xfbfc3eb0>

040042b0 <__subsf3>:
 40042b0:	defffc04 	addi	sp,sp,-16
 40042b4:	280cd5fa 	srli	r6,r5,23
 40042b8:	dc000015 	stw	r16,0(sp)
 40042bc:	01c02034 	movhi	r7,128
 40042c0:	2020d5fa 	srli	r16,r4,23
 40042c4:	39ffffc4 	addi	r7,r7,-1
 40042c8:	3906703a 	and	r3,r7,r4
 40042cc:	dc400115 	stw	r17,4(sp)
 40042d0:	394e703a 	and	r7,r7,r5
 40042d4:	2022d7fa 	srli	r17,r4,31
 40042d8:	dfc00315 	stw	ra,12(sp)
 40042dc:	dc800215 	stw	r18,8(sp)
 40042e0:	31803fcc 	andi	r6,r6,255
 40042e4:	01003fc4 	movi	r4,255
 40042e8:	84003fcc 	andi	r16,r16,255
 40042ec:	180690fa 	slli	r3,r3,3
 40042f0:	2804d7fa 	srli	r2,r5,31
 40042f4:	380e90fa 	slli	r7,r7,3
 40042f8:	31006d26 	beq	r6,r4,40044b0 <__subsf3+0x200>
 40042fc:	1080005c 	xori	r2,r2,1
 4004300:	8189c83a 	sub	r4,r16,r6
 4004304:	14404f26 	beq	r2,r17,4004444 <__subsf3+0x194>
 4004308:	0100770e 	bge	zero,r4,40044e8 <__subsf3+0x238>
 400430c:	30001e1e 	bne	r6,zero,4004388 <__subsf3+0xd8>
 4004310:	38006a1e 	bne	r7,zero,40044bc <__subsf3+0x20c>
 4004314:	188001cc 	andi	r2,r3,7
 4004318:	10000426 	beq	r2,zero,400432c <__subsf3+0x7c>
 400431c:	188003cc 	andi	r2,r3,15
 4004320:	01000104 	movi	r4,4
 4004324:	11000126 	beq	r2,r4,400432c <__subsf3+0x7c>
 4004328:	1907883a 	add	r3,r3,r4
 400432c:	1881002c 	andhi	r2,r3,1024
 4004330:	10003926 	beq	r2,zero,4004418 <__subsf3+0x168>
 4004334:	84000044 	addi	r16,r16,1
 4004338:	00803fc4 	movi	r2,255
 400433c:	80807526 	beq	r16,r2,4004514 <__subsf3+0x264>
 4004340:	180691ba 	slli	r3,r3,6
 4004344:	8880004c 	andi	r2,r17,1
 4004348:	180ad27a 	srli	r5,r3,9
 400434c:	84003fcc 	andi	r16,r16,255
 4004350:	800695fa 	slli	r3,r16,23
 4004354:	10803fcc 	andi	r2,r2,255
 4004358:	01002034 	movhi	r4,128
 400435c:	213fffc4 	addi	r4,r4,-1
 4004360:	100497fa 	slli	r2,r2,31
 4004364:	2920703a 	and	r16,r5,r4
 4004368:	80e0b03a 	or	r16,r16,r3
 400436c:	8084b03a 	or	r2,r16,r2
 4004370:	dfc00317 	ldw	ra,12(sp)
 4004374:	dc800217 	ldw	r18,8(sp)
 4004378:	dc400117 	ldw	r17,4(sp)
 400437c:	dc000017 	ldw	r16,0(sp)
 4004380:	dec00404 	addi	sp,sp,16
 4004384:	f800283a 	ret
 4004388:	00803fc4 	movi	r2,255
 400438c:	80bfe126 	beq	r16,r2,4004314 <__ram_exceptions_end+0xfbfc40cc>
 4004390:	39c10034 	orhi	r7,r7,1024
 4004394:	008006c4 	movi	r2,27
 4004398:	11007416 	blt	r2,r4,400456c <__subsf3+0x2bc>
 400439c:	00800804 	movi	r2,32
 40043a0:	1105c83a 	sub	r2,r2,r4
 40043a4:	3884983a 	sll	r2,r7,r2
 40043a8:	390ed83a 	srl	r7,r7,r4
 40043ac:	1008c03a 	cmpne	r4,r2,zero
 40043b0:	390eb03a 	or	r7,r7,r4
 40043b4:	19c7c83a 	sub	r3,r3,r7
 40043b8:	1881002c 	andhi	r2,r3,1024
 40043bc:	10001426 	beq	r2,zero,4004410 <__subsf3+0x160>
 40043c0:	04810034 	movhi	r18,1024
 40043c4:	94bfffc4 	addi	r18,r18,-1
 40043c8:	1ca4703a 	and	r18,r3,r18
 40043cc:	9009883a 	mov	r4,r18
 40043d0:	40065b80 	call	40065b8 <__clzsi2>
 40043d4:	10bffec4 	addi	r2,r2,-5
 40043d8:	90a4983a 	sll	r18,r18,r2
 40043dc:	14005116 	blt	r2,r16,4004524 <__subsf3+0x274>
 40043e0:	1405c83a 	sub	r2,r2,r16
 40043e4:	10c00044 	addi	r3,r2,1
 40043e8:	00800804 	movi	r2,32
 40043ec:	10c5c83a 	sub	r2,r2,r3
 40043f0:	9084983a 	sll	r2,r18,r2
 40043f4:	90e4d83a 	srl	r18,r18,r3
 40043f8:	0021883a 	mov	r16,zero
 40043fc:	1006c03a 	cmpne	r3,r2,zero
 4004400:	90c6b03a 	or	r3,r18,r3
 4004404:	003fc306 	br	4004314 <__ram_exceptions_end+0xfbfc40cc>
 4004408:	2000e026 	beq	r4,zero,400478c <__subsf3+0x4dc>
 400440c:	2007883a 	mov	r3,r4
 4004410:	188001cc 	andi	r2,r3,7
 4004414:	103fc11e 	bne	r2,zero,400431c <__ram_exceptions_end+0xfbfc40d4>
 4004418:	180ad0fa 	srli	r5,r3,3
 400441c:	00c03fc4 	movi	r3,255
 4004420:	8880004c 	andi	r2,r17,1
 4004424:	80c0031e 	bne	r16,r3,4004434 <__subsf3+0x184>
 4004428:	28006d26 	beq	r5,zero,40045e0 <__subsf3+0x330>
 400442c:	29401034 	orhi	r5,r5,64
 4004430:	043fffc4 	movi	r16,-1
 4004434:	00c02034 	movhi	r3,128
 4004438:	18ffffc4 	addi	r3,r3,-1
 400443c:	28ca703a 	and	r5,r5,r3
 4004440:	003fc206 	br	400434c <__ram_exceptions_end+0xfbfc4104>
 4004444:	01003c0e 	bge	zero,r4,4004538 <__subsf3+0x288>
 4004448:	30002126 	beq	r6,zero,40044d0 <__subsf3+0x220>
 400444c:	01403fc4 	movi	r5,255
 4004450:	817fb026 	beq	r16,r5,4004314 <__ram_exceptions_end+0xfbfc40cc>
 4004454:	39c10034 	orhi	r7,r7,1024
 4004458:	014006c4 	movi	r5,27
 400445c:	29007416 	blt	r5,r4,4004630 <__subsf3+0x380>
 4004460:	01400804 	movi	r5,32
 4004464:	290bc83a 	sub	r5,r5,r4
 4004468:	394a983a 	sll	r5,r7,r5
 400446c:	390ed83a 	srl	r7,r7,r4
 4004470:	2808c03a 	cmpne	r4,r5,zero
 4004474:	390eb03a 	or	r7,r7,r4
 4004478:	19c7883a 	add	r3,r3,r7
 400447c:	1901002c 	andhi	r4,r3,1024
 4004480:	20003826 	beq	r4,zero,4004564 <__subsf3+0x2b4>
 4004484:	84000044 	addi	r16,r16,1
 4004488:	01003fc4 	movi	r4,255
 400448c:	81005426 	beq	r16,r4,40045e0 <__subsf3+0x330>
 4004490:	1023883a 	mov	r17,r2
 4004494:	00bf0034 	movhi	r2,64512
 4004498:	10bfffc4 	addi	r2,r2,-1
 400449c:	1900004c 	andi	r4,r3,1
 40044a0:	1886703a 	and	r3,r3,r2
 40044a4:	1806d07a 	srli	r3,r3,1
 40044a8:	1906b03a 	or	r3,r3,r4
 40044ac:	003f9906 	br	4004314 <__ram_exceptions_end+0xfbfc40cc>
 40044b0:	383f9226 	beq	r7,zero,40042fc <__ram_exceptions_end+0xfbfc40b4>
 40044b4:	10803fcc 	andi	r2,r2,255
 40044b8:	003f9106 	br	4004300 <__ram_exceptions_end+0xfbfc40b8>
 40044bc:	213fffc4 	addi	r4,r4,-1
 40044c0:	203fbc26 	beq	r4,zero,40043b4 <__ram_exceptions_end+0xfbfc416c>
 40044c4:	00803fc4 	movi	r2,255
 40044c8:	80bfb21e 	bne	r16,r2,4004394 <__ram_exceptions_end+0xfbfc414c>
 40044cc:	003f9106 	br	4004314 <__ram_exceptions_end+0xfbfc40cc>
 40044d0:	383f9026 	beq	r7,zero,4004314 <__ram_exceptions_end+0xfbfc40cc>
 40044d4:	213fffc4 	addi	r4,r4,-1
 40044d8:	203fe726 	beq	r4,zero,4004478 <__ram_exceptions_end+0xfbfc4230>
 40044dc:	01403fc4 	movi	r5,255
 40044e0:	817fdd1e 	bne	r16,r5,4004458 <__ram_exceptions_end+0xfbfc4210>
 40044e4:	003f8b06 	br	4004314 <__ram_exceptions_end+0xfbfc40cc>
 40044e8:	2000221e 	bne	r4,zero,4004574 <__subsf3+0x2c4>
 40044ec:	81000044 	addi	r4,r16,1
 40044f0:	21003fcc 	andi	r4,r4,255
 40044f4:	01400044 	movi	r5,1
 40044f8:	2900470e 	bge	r5,r4,4004618 <__subsf3+0x368>
 40044fc:	19e5c83a 	sub	r18,r3,r7
 4004500:	9141002c 	andhi	r5,r18,1024
 4004504:	28002d26 	beq	r5,zero,40045bc <__subsf3+0x30c>
 4004508:	38e5c83a 	sub	r18,r7,r3
 400450c:	1023883a 	mov	r17,r2
 4004510:	003fae06 	br	40043cc <__ram_exceptions_end+0xfbfc4184>
 4004514:	8880004c 	andi	r2,r17,1
 4004518:	043fffc4 	movi	r16,-1
 400451c:	000b883a 	mov	r5,zero
 4004520:	003f8a06 	br	400434c <__ram_exceptions_end+0xfbfc4104>
 4004524:	00ff0034 	movhi	r3,64512
 4004528:	18ffffc4 	addi	r3,r3,-1
 400452c:	80a1c83a 	sub	r16,r16,r2
 4004530:	90c6703a 	and	r3,r18,r3
 4004534:	003f7706 	br	4004314 <__ram_exceptions_end+0xfbfc40cc>
 4004538:	2000431e 	bne	r4,zero,4004648 <__subsf3+0x398>
 400453c:	81000044 	addi	r4,r16,1
 4004540:	21803fcc 	andi	r6,r4,255
 4004544:	01400044 	movi	r5,1
 4004548:	2980280e 	bge	r5,r6,40045ec <__subsf3+0x33c>
 400454c:	01403fc4 	movi	r5,255
 4004550:	21402326 	beq	r4,r5,40045e0 <__subsf3+0x330>
 4004554:	19c7883a 	add	r3,r3,r7
 4004558:	1806d07a 	srli	r3,r3,1
 400455c:	2021883a 	mov	r16,r4
 4004560:	003f6c06 	br	4004314 <__ram_exceptions_end+0xfbfc40cc>
 4004564:	1023883a 	mov	r17,r2
 4004568:	003fa906 	br	4004410 <__ram_exceptions_end+0xfbfc41c8>
 400456c:	01c00044 	movi	r7,1
 4004570:	003f9006 	br	40043b4 <__ram_exceptions_end+0xfbfc416c>
 4004574:	8000151e 	bne	r16,zero,40045cc <__subsf3+0x31c>
 4004578:	18002f26 	beq	r3,zero,4004638 <__subsf3+0x388>
 400457c:	0108303a 	nor	r4,zero,r4
 4004580:	20000a26 	beq	r4,zero,40045ac <__subsf3+0x2fc>
 4004584:	01403fc4 	movi	r5,255
 4004588:	31402b26 	beq	r6,r5,4004638 <__subsf3+0x388>
 400458c:	014006c4 	movi	r5,27
 4004590:	29006e16 	blt	r5,r4,400474c <__subsf3+0x49c>
 4004594:	01400804 	movi	r5,32
 4004598:	290bc83a 	sub	r5,r5,r4
 400459c:	194a983a 	sll	r5,r3,r5
 40045a0:	1908d83a 	srl	r4,r3,r4
 40045a4:	2806c03a 	cmpne	r3,r5,zero
 40045a8:	20c6b03a 	or	r3,r4,r3
 40045ac:	38c7c83a 	sub	r3,r7,r3
 40045b0:	3021883a 	mov	r16,r6
 40045b4:	1023883a 	mov	r17,r2
 40045b8:	003f7f06 	br	40043b8 <__ram_exceptions_end+0xfbfc4170>
 40045bc:	903f831e 	bne	r18,zero,40043cc <__ram_exceptions_end+0xfbfc4184>
 40045c0:	0005883a 	mov	r2,zero
 40045c4:	0021883a 	mov	r16,zero
 40045c8:	003f9a06 	br	4004434 <__ram_exceptions_end+0xfbfc41ec>
 40045cc:	01403fc4 	movi	r5,255
 40045d0:	31401926 	beq	r6,r5,4004638 <__subsf3+0x388>
 40045d4:	0109c83a 	sub	r4,zero,r4
 40045d8:	18c10034 	orhi	r3,r3,1024
 40045dc:	003feb06 	br	400458c <__ram_exceptions_end+0xfbfc4344>
 40045e0:	043fffc4 	movi	r16,-1
 40045e4:	000b883a 	mov	r5,zero
 40045e8:	003f5806 	br	400434c <__ram_exceptions_end+0xfbfc4104>
 40045ec:	8000481e 	bne	r16,zero,4004710 <__subsf3+0x460>
 40045f0:	18006226 	beq	r3,zero,400477c <__subsf3+0x4cc>
 40045f4:	383f4726 	beq	r7,zero,4004314 <__ram_exceptions_end+0xfbfc40cc>
 40045f8:	19c7883a 	add	r3,r3,r7
 40045fc:	1881002c 	andhi	r2,r3,1024
 4004600:	103f8326 	beq	r2,zero,4004410 <__ram_exceptions_end+0xfbfc41c8>
 4004604:	00bf0034 	movhi	r2,64512
 4004608:	10bfffc4 	addi	r2,r2,-1
 400460c:	2821883a 	mov	r16,r5
 4004610:	1886703a 	and	r3,r3,r2
 4004614:	003f3f06 	br	4004314 <__ram_exceptions_end+0xfbfc40cc>
 4004618:	80001c1e 	bne	r16,zero,400468c <__subsf3+0x3dc>
 400461c:	1800261e 	bne	r3,zero,40046b8 <__subsf3+0x408>
 4004620:	38004c26 	beq	r7,zero,4004754 <__subsf3+0x4a4>
 4004624:	3807883a 	mov	r3,r7
 4004628:	1023883a 	mov	r17,r2
 400462c:	003f3906 	br	4004314 <__ram_exceptions_end+0xfbfc40cc>
 4004630:	01c00044 	movi	r7,1
 4004634:	003f9006 	br	4004478 <__ram_exceptions_end+0xfbfc4230>
 4004638:	3807883a 	mov	r3,r7
 400463c:	3021883a 	mov	r16,r6
 4004640:	1023883a 	mov	r17,r2
 4004644:	003f3306 	br	4004314 <__ram_exceptions_end+0xfbfc40cc>
 4004648:	8000161e 	bne	r16,zero,40046a4 <__subsf3+0x3f4>
 400464c:	18002d26 	beq	r3,zero,4004704 <__subsf3+0x454>
 4004650:	0108303a 	nor	r4,zero,r4
 4004654:	20000a26 	beq	r4,zero,4004680 <__subsf3+0x3d0>
 4004658:	01403fc4 	movi	r5,255
 400465c:	31402926 	beq	r6,r5,4004704 <__subsf3+0x454>
 4004660:	014006c4 	movi	r5,27
 4004664:	29004716 	blt	r5,r4,4004784 <__subsf3+0x4d4>
 4004668:	01400804 	movi	r5,32
 400466c:	290bc83a 	sub	r5,r5,r4
 4004670:	194a983a 	sll	r5,r3,r5
 4004674:	1908d83a 	srl	r4,r3,r4
 4004678:	2806c03a 	cmpne	r3,r5,zero
 400467c:	20c6b03a 	or	r3,r4,r3
 4004680:	19c7883a 	add	r3,r3,r7
 4004684:	3021883a 	mov	r16,r6
 4004688:	003f7c06 	br	400447c <__ram_exceptions_end+0xfbfc4234>
 400468c:	1800111e 	bne	r3,zero,40046d4 <__subsf3+0x424>
 4004690:	38003326 	beq	r7,zero,4004760 <__subsf3+0x4b0>
 4004694:	3807883a 	mov	r3,r7
 4004698:	1023883a 	mov	r17,r2
 400469c:	04003fc4 	movi	r16,255
 40046a0:	003f1c06 	br	4004314 <__ram_exceptions_end+0xfbfc40cc>
 40046a4:	01403fc4 	movi	r5,255
 40046a8:	31401626 	beq	r6,r5,4004704 <__subsf3+0x454>
 40046ac:	0109c83a 	sub	r4,zero,r4
 40046b0:	18c10034 	orhi	r3,r3,1024
 40046b4:	003fea06 	br	4004660 <__ram_exceptions_end+0xfbfc4418>
 40046b8:	383f1626 	beq	r7,zero,4004314 <__ram_exceptions_end+0xfbfc40cc>
 40046bc:	19c9c83a 	sub	r4,r3,r7
 40046c0:	2141002c 	andhi	r5,r4,1024
 40046c4:	283f5026 	beq	r5,zero,4004408 <__ram_exceptions_end+0xfbfc41c0>
 40046c8:	38c7c83a 	sub	r3,r7,r3
 40046cc:	1023883a 	mov	r17,r2
 40046d0:	003f1006 	br	4004314 <__ram_exceptions_end+0xfbfc40cc>
 40046d4:	38001b26 	beq	r7,zero,4004744 <__subsf3+0x494>
 40046d8:	1806d0fa 	srli	r3,r3,3
 40046dc:	1900102c 	andhi	r4,r3,64
 40046e0:	20000526 	beq	r4,zero,40046f8 <__subsf3+0x448>
 40046e4:	380ed0fa 	srli	r7,r7,3
 40046e8:	3900102c 	andhi	r4,r7,64
 40046ec:	2000021e 	bne	r4,zero,40046f8 <__subsf3+0x448>
 40046f0:	3807883a 	mov	r3,r7
 40046f4:	1023883a 	mov	r17,r2
 40046f8:	180690fa 	slli	r3,r3,3
 40046fc:	04003fc4 	movi	r16,255
 4004700:	003f0406 	br	4004314 <__ram_exceptions_end+0xfbfc40cc>
 4004704:	3807883a 	mov	r3,r7
 4004708:	3021883a 	mov	r16,r6
 400470c:	003f0106 	br	4004314 <__ram_exceptions_end+0xfbfc40cc>
 4004710:	18001726 	beq	r3,zero,4004770 <__subsf3+0x4c0>
 4004714:	38000b26 	beq	r7,zero,4004744 <__subsf3+0x494>
 4004718:	1806d0fa 	srli	r3,r3,3
 400471c:	1900102c 	andhi	r4,r3,64
 4004720:	20000426 	beq	r4,zero,4004734 <__subsf3+0x484>
 4004724:	380ed0fa 	srli	r7,r7,3
 4004728:	3900102c 	andhi	r4,r7,64
 400472c:	2000011e 	bne	r4,zero,4004734 <__subsf3+0x484>
 4004730:	3807883a 	mov	r3,r7
 4004734:	180690fa 	slli	r3,r3,3
 4004738:	1023883a 	mov	r17,r2
 400473c:	04003fc4 	movi	r16,255
 4004740:	003ef406 	br	4004314 <__ram_exceptions_end+0xfbfc40cc>
 4004744:	04003fc4 	movi	r16,255
 4004748:	003ef206 	br	4004314 <__ram_exceptions_end+0xfbfc40cc>
 400474c:	00c00044 	movi	r3,1
 4004750:	003f9606 	br	40045ac <__ram_exceptions_end+0xfbfc4364>
 4004754:	000b883a 	mov	r5,zero
 4004758:	0005883a 	mov	r2,zero
 400475c:	003f3506 	br	4004434 <__ram_exceptions_end+0xfbfc41ec>
 4004760:	01402034 	movhi	r5,128
 4004764:	297fffc4 	addi	r5,r5,-1
 4004768:	0005883a 	mov	r2,zero
 400476c:	003f2f06 	br	400442c <__ram_exceptions_end+0xfbfc41e4>
 4004770:	3807883a 	mov	r3,r7
 4004774:	04003fc4 	movi	r16,255
 4004778:	003ee606 	br	4004314 <__ram_exceptions_end+0xfbfc40cc>
 400477c:	3807883a 	mov	r3,r7
 4004780:	003ee406 	br	4004314 <__ram_exceptions_end+0xfbfc40cc>
 4004784:	00c00044 	movi	r3,1
 4004788:	003fbd06 	br	4004680 <__ram_exceptions_end+0xfbfc4438>
 400478c:	0005883a 	mov	r2,zero
 4004790:	003f2806 	br	4004434 <__ram_exceptions_end+0xfbfc41ec>

04004794 <__fixsfsi>:
 4004794:	200ad5fa 	srli	r5,r4,23
 4004798:	00c02034 	movhi	r3,128
 400479c:	18ffffc4 	addi	r3,r3,-1
 40047a0:	29403fcc 	andi	r5,r5,255
 40047a4:	00801f84 	movi	r2,126
 40047a8:	1906703a 	and	r3,r3,r4
 40047ac:	2008d7fa 	srli	r4,r4,31
 40047b0:	11400e0e 	bge	r2,r5,40047ec <__fixsfsi+0x58>
 40047b4:	00802744 	movi	r2,157
 40047b8:	11400816 	blt	r2,r5,40047dc <__fixsfsi+0x48>
 40047bc:	00802544 	movi	r2,149
 40047c0:	18c02034 	orhi	r3,r3,128
 40047c4:	11400b0e 	bge	r2,r5,40047f4 <__fixsfsi+0x60>
 40047c8:	28bfda84 	addi	r2,r5,-150
 40047cc:	1884983a 	sll	r2,r3,r2
 40047d0:	20000726 	beq	r4,zero,40047f0 <__fixsfsi+0x5c>
 40047d4:	0085c83a 	sub	r2,zero,r2
 40047d8:	f800283a 	ret
 40047dc:	00a00034 	movhi	r2,32768
 40047e0:	10bfffc4 	addi	r2,r2,-1
 40047e4:	2085883a 	add	r2,r4,r2
 40047e8:	f800283a 	ret
 40047ec:	0005883a 	mov	r2,zero
 40047f0:	f800283a 	ret
 40047f4:	00802584 	movi	r2,150
 40047f8:	1145c83a 	sub	r2,r2,r5
 40047fc:	1884d83a 	srl	r2,r3,r2
 4004800:	003ff306 	br	40047d0 <__ram_exceptions_end+0xfbfc4588>

04004804 <__floatsisf>:
 4004804:	defffd04 	addi	sp,sp,-12
 4004808:	dfc00215 	stw	ra,8(sp)
 400480c:	dc400115 	stw	r17,4(sp)
 4004810:	dc000015 	stw	r16,0(sp)
 4004814:	20003526 	beq	r4,zero,40048ec <__floatsisf+0xe8>
 4004818:	2021883a 	mov	r16,r4
 400481c:	2022d7fa 	srli	r17,r4,31
 4004820:	20003616 	blt	r4,zero,40048fc <__floatsisf+0xf8>
 4004824:	8009883a 	mov	r4,r16
 4004828:	40065b80 	call	40065b8 <__clzsi2>
 400482c:	00c02784 	movi	r3,158
 4004830:	1887c83a 	sub	r3,r3,r2
 4004834:	01002584 	movi	r4,150
 4004838:	20c01416 	blt	r4,r3,400488c <__floatsisf+0x88>
 400483c:	20c9c83a 	sub	r4,r4,r3
 4004840:	8120983a 	sll	r16,r16,r4
 4004844:	00802034 	movhi	r2,128
 4004848:	10bfffc4 	addi	r2,r2,-1
 400484c:	8809883a 	mov	r4,r17
 4004850:	80a0703a 	and	r16,r16,r2
 4004854:	18803fcc 	andi	r2,r3,255
 4004858:	100695fa 	slli	r3,r2,23
 400485c:	20803fcc 	andi	r2,r4,255
 4004860:	100897fa 	slli	r4,r2,31
 4004864:	00802034 	movhi	r2,128
 4004868:	10bfffc4 	addi	r2,r2,-1
 400486c:	8084703a 	and	r2,r16,r2
 4004870:	10c4b03a 	or	r2,r2,r3
 4004874:	1104b03a 	or	r2,r2,r4
 4004878:	dfc00217 	ldw	ra,8(sp)
 400487c:	dc400117 	ldw	r17,4(sp)
 4004880:	dc000017 	ldw	r16,0(sp)
 4004884:	dec00304 	addi	sp,sp,12
 4004888:	f800283a 	ret
 400488c:	01002644 	movi	r4,153
 4004890:	20c01c16 	blt	r4,r3,4004904 <__floatsisf+0x100>
 4004894:	20c9c83a 	sub	r4,r4,r3
 4004898:	8120983a 	sll	r16,r16,r4
 400489c:	013f0034 	movhi	r4,64512
 40048a0:	213fffc4 	addi	r4,r4,-1
 40048a4:	814001cc 	andi	r5,r16,7
 40048a8:	8108703a 	and	r4,r16,r4
 40048ac:	28000426 	beq	r5,zero,40048c0 <__floatsisf+0xbc>
 40048b0:	840003cc 	andi	r16,r16,15
 40048b4:	01400104 	movi	r5,4
 40048b8:	81400126 	beq	r16,r5,40048c0 <__floatsisf+0xbc>
 40048bc:	2149883a 	add	r4,r4,r5
 40048c0:	2141002c 	andhi	r5,r4,1024
 40048c4:	28000526 	beq	r5,zero,40048dc <__floatsisf+0xd8>
 40048c8:	00c027c4 	movi	r3,159
 40048cc:	1887c83a 	sub	r3,r3,r2
 40048d0:	00bf0034 	movhi	r2,64512
 40048d4:	10bfffc4 	addi	r2,r2,-1
 40048d8:	2088703a 	and	r4,r4,r2
 40048dc:	202091ba 	slli	r16,r4,6
 40048e0:	8809883a 	mov	r4,r17
 40048e4:	8020d27a 	srli	r16,r16,9
 40048e8:	003fda06 	br	4004854 <__ram_exceptions_end+0xfbfc460c>
 40048ec:	0009883a 	mov	r4,zero
 40048f0:	0007883a 	mov	r3,zero
 40048f4:	0021883a 	mov	r16,zero
 40048f8:	003fd606 	br	4004854 <__ram_exceptions_end+0xfbfc460c>
 40048fc:	0121c83a 	sub	r16,zero,r4
 4004900:	003fc806 	br	4004824 <__ram_exceptions_end+0xfbfc45dc>
 4004904:	01002e44 	movi	r4,185
 4004908:	20c9c83a 	sub	r4,r4,r3
 400490c:	01400144 	movi	r5,5
 4004910:	8108983a 	sll	r4,r16,r4
 4004914:	288bc83a 	sub	r5,r5,r2
 4004918:	8160d83a 	srl	r16,r16,r5
 400491c:	2008c03a 	cmpne	r4,r4,zero
 4004920:	8120b03a 	or	r16,r16,r4
 4004924:	003fdd06 	br	400489c <__ram_exceptions_end+0xfbfc4654>

04004928 <__adddf3>:
 4004928:	02c00434 	movhi	r11,16
 400492c:	5affffc4 	addi	r11,r11,-1
 4004930:	2806d7fa 	srli	r3,r5,31
 4004934:	2ad4703a 	and	r10,r5,r11
 4004938:	3ad2703a 	and	r9,r7,r11
 400493c:	3804d53a 	srli	r2,r7,20
 4004940:	3018d77a 	srli	r12,r6,29
 4004944:	280ad53a 	srli	r5,r5,20
 4004948:	501490fa 	slli	r10,r10,3
 400494c:	2010d77a 	srli	r8,r4,29
 4004950:	481290fa 	slli	r9,r9,3
 4004954:	380ed7fa 	srli	r7,r7,31
 4004958:	defffb04 	addi	sp,sp,-20
 400495c:	dc800215 	stw	r18,8(sp)
 4004960:	dc400115 	stw	r17,4(sp)
 4004964:	dc000015 	stw	r16,0(sp)
 4004968:	dfc00415 	stw	ra,16(sp)
 400496c:	dcc00315 	stw	r19,12(sp)
 4004970:	1c803fcc 	andi	r18,r3,255
 4004974:	2c01ffcc 	andi	r16,r5,2047
 4004978:	5210b03a 	or	r8,r10,r8
 400497c:	202290fa 	slli	r17,r4,3
 4004980:	1081ffcc 	andi	r2,r2,2047
 4004984:	4b12b03a 	or	r9,r9,r12
 4004988:	300c90fa 	slli	r6,r6,3
 400498c:	91c07526 	beq	r18,r7,4004b64 <__adddf3+0x23c>
 4004990:	8087c83a 	sub	r3,r16,r2
 4004994:	00c0ab0e 	bge	zero,r3,4004c44 <__adddf3+0x31c>
 4004998:	10002a1e 	bne	r2,zero,4004a44 <__adddf3+0x11c>
 400499c:	4984b03a 	or	r2,r9,r6
 40049a0:	1000961e 	bne	r2,zero,4004bfc <__adddf3+0x2d4>
 40049a4:	888001cc 	andi	r2,r17,7
 40049a8:	10000726 	beq	r2,zero,40049c8 <__adddf3+0xa0>
 40049ac:	888003cc 	andi	r2,r17,15
 40049b0:	00c00104 	movi	r3,4
 40049b4:	10c00426 	beq	r2,r3,40049c8 <__adddf3+0xa0>
 40049b8:	88c7883a 	add	r3,r17,r3
 40049bc:	1c63803a 	cmpltu	r17,r3,r17
 40049c0:	4451883a 	add	r8,r8,r17
 40049c4:	1823883a 	mov	r17,r3
 40049c8:	4080202c 	andhi	r2,r8,128
 40049cc:	10005926 	beq	r2,zero,4004b34 <__adddf3+0x20c>
 40049d0:	84000044 	addi	r16,r16,1
 40049d4:	0081ffc4 	movi	r2,2047
 40049d8:	8080ba26 	beq	r16,r2,4004cc4 <__adddf3+0x39c>
 40049dc:	00bfe034 	movhi	r2,65408
 40049e0:	10bfffc4 	addi	r2,r2,-1
 40049e4:	4090703a 	and	r8,r8,r2
 40049e8:	4004977a 	slli	r2,r8,29
 40049ec:	4010927a 	slli	r8,r8,9
 40049f0:	8822d0fa 	srli	r17,r17,3
 40049f4:	8401ffcc 	andi	r16,r16,2047
 40049f8:	4010d33a 	srli	r8,r8,12
 40049fc:	9007883a 	mov	r3,r18
 4004a00:	1444b03a 	or	r2,r2,r17
 4004a04:	8401ffcc 	andi	r16,r16,2047
 4004a08:	8020953a 	slli	r16,r16,20
 4004a0c:	18c03fcc 	andi	r3,r3,255
 4004a10:	01000434 	movhi	r4,16
 4004a14:	213fffc4 	addi	r4,r4,-1
 4004a18:	180697fa 	slli	r3,r3,31
 4004a1c:	4110703a 	and	r8,r8,r4
 4004a20:	4410b03a 	or	r8,r8,r16
 4004a24:	40c6b03a 	or	r3,r8,r3
 4004a28:	dfc00417 	ldw	ra,16(sp)
 4004a2c:	dcc00317 	ldw	r19,12(sp)
 4004a30:	dc800217 	ldw	r18,8(sp)
 4004a34:	dc400117 	ldw	r17,4(sp)
 4004a38:	dc000017 	ldw	r16,0(sp)
 4004a3c:	dec00504 	addi	sp,sp,20
 4004a40:	f800283a 	ret
 4004a44:	0081ffc4 	movi	r2,2047
 4004a48:	80bfd626 	beq	r16,r2,40049a4 <__ram_exceptions_end+0xfbfc475c>
 4004a4c:	4a402034 	orhi	r9,r9,128
 4004a50:	00800e04 	movi	r2,56
 4004a54:	10c09f16 	blt	r2,r3,4004cd4 <__adddf3+0x3ac>
 4004a58:	008007c4 	movi	r2,31
 4004a5c:	10c0c216 	blt	r2,r3,4004d68 <__adddf3+0x440>
 4004a60:	00800804 	movi	r2,32
 4004a64:	10c5c83a 	sub	r2,r2,r3
 4004a68:	488a983a 	sll	r5,r9,r2
 4004a6c:	30c8d83a 	srl	r4,r6,r3
 4004a70:	3084983a 	sll	r2,r6,r2
 4004a74:	48c6d83a 	srl	r3,r9,r3
 4004a78:	290cb03a 	or	r6,r5,r4
 4004a7c:	1004c03a 	cmpne	r2,r2,zero
 4004a80:	308cb03a 	or	r6,r6,r2
 4004a84:	898dc83a 	sub	r6,r17,r6
 4004a88:	89a3803a 	cmpltu	r17,r17,r6
 4004a8c:	40d1c83a 	sub	r8,r8,r3
 4004a90:	4451c83a 	sub	r8,r8,r17
 4004a94:	3023883a 	mov	r17,r6
 4004a98:	4080202c 	andhi	r2,r8,128
 4004a9c:	10002326 	beq	r2,zero,4004b2c <__adddf3+0x204>
 4004aa0:	04c02034 	movhi	r19,128
 4004aa4:	9cffffc4 	addi	r19,r19,-1
 4004aa8:	44e6703a 	and	r19,r8,r19
 4004aac:	98007626 	beq	r19,zero,4004c88 <__adddf3+0x360>
 4004ab0:	9809883a 	mov	r4,r19
 4004ab4:	40065b80 	call	40065b8 <__clzsi2>
 4004ab8:	10fffe04 	addi	r3,r2,-8
 4004abc:	010007c4 	movi	r4,31
 4004ac0:	20c07716 	blt	r4,r3,4004ca0 <__adddf3+0x378>
 4004ac4:	00800804 	movi	r2,32
 4004ac8:	10c5c83a 	sub	r2,r2,r3
 4004acc:	8884d83a 	srl	r2,r17,r2
 4004ad0:	98d0983a 	sll	r8,r19,r3
 4004ad4:	88e2983a 	sll	r17,r17,r3
 4004ad8:	1204b03a 	or	r2,r2,r8
 4004adc:	1c007416 	blt	r3,r16,4004cb0 <__adddf3+0x388>
 4004ae0:	1c21c83a 	sub	r16,r3,r16
 4004ae4:	82000044 	addi	r8,r16,1
 4004ae8:	00c007c4 	movi	r3,31
 4004aec:	1a009116 	blt	r3,r8,4004d34 <__adddf3+0x40c>
 4004af0:	00c00804 	movi	r3,32
 4004af4:	1a07c83a 	sub	r3,r3,r8
 4004af8:	8a08d83a 	srl	r4,r17,r8
 4004afc:	88e2983a 	sll	r17,r17,r3
 4004b00:	10c6983a 	sll	r3,r2,r3
 4004b04:	1210d83a 	srl	r8,r2,r8
 4004b08:	8804c03a 	cmpne	r2,r17,zero
 4004b0c:	1906b03a 	or	r3,r3,r4
 4004b10:	18a2b03a 	or	r17,r3,r2
 4004b14:	0021883a 	mov	r16,zero
 4004b18:	003fa206 	br	40049a4 <__ram_exceptions_end+0xfbfc475c>
 4004b1c:	1890b03a 	or	r8,r3,r2
 4004b20:	40017d26 	beq	r8,zero,4005118 <__adddf3+0x7f0>
 4004b24:	1011883a 	mov	r8,r2
 4004b28:	1823883a 	mov	r17,r3
 4004b2c:	888001cc 	andi	r2,r17,7
 4004b30:	103f9e1e 	bne	r2,zero,40049ac <__ram_exceptions_end+0xfbfc4764>
 4004b34:	4004977a 	slli	r2,r8,29
 4004b38:	8822d0fa 	srli	r17,r17,3
 4004b3c:	4010d0fa 	srli	r8,r8,3
 4004b40:	9007883a 	mov	r3,r18
 4004b44:	1444b03a 	or	r2,r2,r17
 4004b48:	0101ffc4 	movi	r4,2047
 4004b4c:	81002426 	beq	r16,r4,4004be0 <__adddf3+0x2b8>
 4004b50:	8120703a 	and	r16,r16,r4
 4004b54:	01000434 	movhi	r4,16
 4004b58:	213fffc4 	addi	r4,r4,-1
 4004b5c:	4110703a 	and	r8,r8,r4
 4004b60:	003fa806 	br	4004a04 <__ram_exceptions_end+0xfbfc47bc>
 4004b64:	8089c83a 	sub	r4,r16,r2
 4004b68:	01005e0e 	bge	zero,r4,4004ce4 <__adddf3+0x3bc>
 4004b6c:	10002b26 	beq	r2,zero,4004c1c <__adddf3+0x2f4>
 4004b70:	0081ffc4 	movi	r2,2047
 4004b74:	80bf8b26 	beq	r16,r2,40049a4 <__ram_exceptions_end+0xfbfc475c>
 4004b78:	4a402034 	orhi	r9,r9,128
 4004b7c:	00800e04 	movi	r2,56
 4004b80:	1100a40e 	bge	r2,r4,4004e14 <__adddf3+0x4ec>
 4004b84:	498cb03a 	or	r6,r9,r6
 4004b88:	300ac03a 	cmpne	r5,r6,zero
 4004b8c:	0013883a 	mov	r9,zero
 4004b90:	2c4b883a 	add	r5,r5,r17
 4004b94:	2c63803a 	cmpltu	r17,r5,r17
 4004b98:	4a11883a 	add	r8,r9,r8
 4004b9c:	8a11883a 	add	r8,r17,r8
 4004ba0:	2823883a 	mov	r17,r5
 4004ba4:	4080202c 	andhi	r2,r8,128
 4004ba8:	103fe026 	beq	r2,zero,4004b2c <__ram_exceptions_end+0xfbfc48e4>
 4004bac:	84000044 	addi	r16,r16,1
 4004bb0:	0081ffc4 	movi	r2,2047
 4004bb4:	8080d226 	beq	r16,r2,4004f00 <__adddf3+0x5d8>
 4004bb8:	00bfe034 	movhi	r2,65408
 4004bbc:	10bfffc4 	addi	r2,r2,-1
 4004bc0:	4090703a 	and	r8,r8,r2
 4004bc4:	880ad07a 	srli	r5,r17,1
 4004bc8:	400897fa 	slli	r4,r8,31
 4004bcc:	88c0004c 	andi	r3,r17,1
 4004bd0:	28e2b03a 	or	r17,r5,r3
 4004bd4:	4010d07a 	srli	r8,r8,1
 4004bd8:	2462b03a 	or	r17,r4,r17
 4004bdc:	003f7106 	br	40049a4 <__ram_exceptions_end+0xfbfc475c>
 4004be0:	4088b03a 	or	r4,r8,r2
 4004be4:	20014526 	beq	r4,zero,40050fc <__adddf3+0x7d4>
 4004be8:	01000434 	movhi	r4,16
 4004bec:	42000234 	orhi	r8,r8,8
 4004bf0:	213fffc4 	addi	r4,r4,-1
 4004bf4:	4110703a 	and	r8,r8,r4
 4004bf8:	003f8206 	br	4004a04 <__ram_exceptions_end+0xfbfc47bc>
 4004bfc:	18ffffc4 	addi	r3,r3,-1
 4004c00:	1800491e 	bne	r3,zero,4004d28 <__adddf3+0x400>
 4004c04:	898bc83a 	sub	r5,r17,r6
 4004c08:	8963803a 	cmpltu	r17,r17,r5
 4004c0c:	4251c83a 	sub	r8,r8,r9
 4004c10:	4451c83a 	sub	r8,r8,r17
 4004c14:	2823883a 	mov	r17,r5
 4004c18:	003f9f06 	br	4004a98 <__ram_exceptions_end+0xfbfc4850>
 4004c1c:	4984b03a 	or	r2,r9,r6
 4004c20:	103f6026 	beq	r2,zero,40049a4 <__ram_exceptions_end+0xfbfc475c>
 4004c24:	213fffc4 	addi	r4,r4,-1
 4004c28:	2000931e 	bne	r4,zero,4004e78 <__adddf3+0x550>
 4004c2c:	898d883a 	add	r6,r17,r6
 4004c30:	3463803a 	cmpltu	r17,r6,r17
 4004c34:	4251883a 	add	r8,r8,r9
 4004c38:	8a11883a 	add	r8,r17,r8
 4004c3c:	3023883a 	mov	r17,r6
 4004c40:	003fd806 	br	4004ba4 <__ram_exceptions_end+0xfbfc495c>
 4004c44:	1800541e 	bne	r3,zero,4004d98 <__adddf3+0x470>
 4004c48:	80800044 	addi	r2,r16,1
 4004c4c:	1081ffcc 	andi	r2,r2,2047
 4004c50:	00c00044 	movi	r3,1
 4004c54:	1880a00e 	bge	r3,r2,4004ed8 <__adddf3+0x5b0>
 4004c58:	8989c83a 	sub	r4,r17,r6
 4004c5c:	8905803a 	cmpltu	r2,r17,r4
 4004c60:	4267c83a 	sub	r19,r8,r9
 4004c64:	98a7c83a 	sub	r19,r19,r2
 4004c68:	9880202c 	andhi	r2,r19,128
 4004c6c:	10006326 	beq	r2,zero,4004dfc <__adddf3+0x4d4>
 4004c70:	3463c83a 	sub	r17,r6,r17
 4004c74:	4a07c83a 	sub	r3,r9,r8
 4004c78:	344d803a 	cmpltu	r6,r6,r17
 4004c7c:	19a7c83a 	sub	r19,r3,r6
 4004c80:	3825883a 	mov	r18,r7
 4004c84:	983f8a1e 	bne	r19,zero,4004ab0 <__ram_exceptions_end+0xfbfc4868>
 4004c88:	8809883a 	mov	r4,r17
 4004c8c:	40065b80 	call	40065b8 <__clzsi2>
 4004c90:	10800804 	addi	r2,r2,32
 4004c94:	10fffe04 	addi	r3,r2,-8
 4004c98:	010007c4 	movi	r4,31
 4004c9c:	20ff890e 	bge	r4,r3,4004ac4 <__ram_exceptions_end+0xfbfc487c>
 4004ca0:	10bff604 	addi	r2,r2,-40
 4004ca4:	8884983a 	sll	r2,r17,r2
 4004ca8:	0023883a 	mov	r17,zero
 4004cac:	1c3f8c0e 	bge	r3,r16,4004ae0 <__ram_exceptions_end+0xfbfc4898>
 4004cb0:	023fe034 	movhi	r8,65408
 4004cb4:	423fffc4 	addi	r8,r8,-1
 4004cb8:	80e1c83a 	sub	r16,r16,r3
 4004cbc:	1210703a 	and	r8,r2,r8
 4004cc0:	003f3806 	br	40049a4 <__ram_exceptions_end+0xfbfc475c>
 4004cc4:	9007883a 	mov	r3,r18
 4004cc8:	0011883a 	mov	r8,zero
 4004ccc:	0005883a 	mov	r2,zero
 4004cd0:	003f4c06 	br	4004a04 <__ram_exceptions_end+0xfbfc47bc>
 4004cd4:	498cb03a 	or	r6,r9,r6
 4004cd8:	300cc03a 	cmpne	r6,r6,zero
 4004cdc:	0007883a 	mov	r3,zero
 4004ce0:	003f6806 	br	4004a84 <__ram_exceptions_end+0xfbfc483c>
 4004ce4:	20009c1e 	bne	r4,zero,4004f58 <__adddf3+0x630>
 4004ce8:	80800044 	addi	r2,r16,1
 4004cec:	1141ffcc 	andi	r5,r2,2047
 4004cf0:	01000044 	movi	r4,1
 4004cf4:	2140670e 	bge	r4,r5,4004e94 <__adddf3+0x56c>
 4004cf8:	0101ffc4 	movi	r4,2047
 4004cfc:	11007f26 	beq	r2,r4,4004efc <__adddf3+0x5d4>
 4004d00:	898d883a 	add	r6,r17,r6
 4004d04:	4247883a 	add	r3,r8,r9
 4004d08:	3451803a 	cmpltu	r8,r6,r17
 4004d0c:	40d1883a 	add	r8,r8,r3
 4004d10:	402297fa 	slli	r17,r8,31
 4004d14:	300cd07a 	srli	r6,r6,1
 4004d18:	4010d07a 	srli	r8,r8,1
 4004d1c:	1021883a 	mov	r16,r2
 4004d20:	89a2b03a 	or	r17,r17,r6
 4004d24:	003f1f06 	br	40049a4 <__ram_exceptions_end+0xfbfc475c>
 4004d28:	0081ffc4 	movi	r2,2047
 4004d2c:	80bf481e 	bne	r16,r2,4004a50 <__ram_exceptions_end+0xfbfc4808>
 4004d30:	003f1c06 	br	40049a4 <__ram_exceptions_end+0xfbfc475c>
 4004d34:	843ff844 	addi	r16,r16,-31
 4004d38:	01000804 	movi	r4,32
 4004d3c:	1406d83a 	srl	r3,r2,r16
 4004d40:	41005026 	beq	r8,r4,4004e84 <__adddf3+0x55c>
 4004d44:	01001004 	movi	r4,64
 4004d48:	2211c83a 	sub	r8,r4,r8
 4004d4c:	1204983a 	sll	r2,r2,r8
 4004d50:	88a2b03a 	or	r17,r17,r2
 4004d54:	8822c03a 	cmpne	r17,r17,zero
 4004d58:	1c62b03a 	or	r17,r3,r17
 4004d5c:	0011883a 	mov	r8,zero
 4004d60:	0021883a 	mov	r16,zero
 4004d64:	003f7106 	br	4004b2c <__ram_exceptions_end+0xfbfc48e4>
 4004d68:	193ff804 	addi	r4,r3,-32
 4004d6c:	00800804 	movi	r2,32
 4004d70:	4908d83a 	srl	r4,r9,r4
 4004d74:	18804526 	beq	r3,r2,4004e8c <__adddf3+0x564>
 4004d78:	00801004 	movi	r2,64
 4004d7c:	10c5c83a 	sub	r2,r2,r3
 4004d80:	4886983a 	sll	r3,r9,r2
 4004d84:	198cb03a 	or	r6,r3,r6
 4004d88:	300cc03a 	cmpne	r6,r6,zero
 4004d8c:	218cb03a 	or	r6,r4,r6
 4004d90:	0007883a 	mov	r3,zero
 4004d94:	003f3b06 	br	4004a84 <__ram_exceptions_end+0xfbfc483c>
 4004d98:	80002a26 	beq	r16,zero,4004e44 <__adddf3+0x51c>
 4004d9c:	0101ffc4 	movi	r4,2047
 4004da0:	11006826 	beq	r2,r4,4004f44 <__adddf3+0x61c>
 4004da4:	00c7c83a 	sub	r3,zero,r3
 4004da8:	42002034 	orhi	r8,r8,128
 4004dac:	01000e04 	movi	r4,56
 4004db0:	20c07c16 	blt	r4,r3,4004fa4 <__adddf3+0x67c>
 4004db4:	010007c4 	movi	r4,31
 4004db8:	20c0da16 	blt	r4,r3,4005124 <__adddf3+0x7fc>
 4004dbc:	01000804 	movi	r4,32
 4004dc0:	20c9c83a 	sub	r4,r4,r3
 4004dc4:	4114983a 	sll	r10,r8,r4
 4004dc8:	88cad83a 	srl	r5,r17,r3
 4004dcc:	8908983a 	sll	r4,r17,r4
 4004dd0:	40c6d83a 	srl	r3,r8,r3
 4004dd4:	5162b03a 	or	r17,r10,r5
 4004dd8:	2008c03a 	cmpne	r4,r4,zero
 4004ddc:	8922b03a 	or	r17,r17,r4
 4004de0:	3463c83a 	sub	r17,r6,r17
 4004de4:	48c7c83a 	sub	r3,r9,r3
 4004de8:	344d803a 	cmpltu	r6,r6,r17
 4004dec:	1991c83a 	sub	r8,r3,r6
 4004df0:	1021883a 	mov	r16,r2
 4004df4:	3825883a 	mov	r18,r7
 4004df8:	003f2706 	br	4004a98 <__ram_exceptions_end+0xfbfc4850>
 4004dfc:	24d0b03a 	or	r8,r4,r19
 4004e00:	40001b1e 	bne	r8,zero,4004e70 <__adddf3+0x548>
 4004e04:	0005883a 	mov	r2,zero
 4004e08:	0007883a 	mov	r3,zero
 4004e0c:	0021883a 	mov	r16,zero
 4004e10:	003f4d06 	br	4004b48 <__ram_exceptions_end+0xfbfc4900>
 4004e14:	008007c4 	movi	r2,31
 4004e18:	11003c16 	blt	r2,r4,4004f0c <__adddf3+0x5e4>
 4004e1c:	00800804 	movi	r2,32
 4004e20:	1105c83a 	sub	r2,r2,r4
 4004e24:	488e983a 	sll	r7,r9,r2
 4004e28:	310ad83a 	srl	r5,r6,r4
 4004e2c:	3084983a 	sll	r2,r6,r2
 4004e30:	4912d83a 	srl	r9,r9,r4
 4004e34:	394ab03a 	or	r5,r7,r5
 4004e38:	1004c03a 	cmpne	r2,r2,zero
 4004e3c:	288ab03a 	or	r5,r5,r2
 4004e40:	003f5306 	br	4004b90 <__ram_exceptions_end+0xfbfc4948>
 4004e44:	4448b03a 	or	r4,r8,r17
 4004e48:	20003e26 	beq	r4,zero,4004f44 <__adddf3+0x61c>
 4004e4c:	00c6303a 	nor	r3,zero,r3
 4004e50:	18003a1e 	bne	r3,zero,4004f3c <__adddf3+0x614>
 4004e54:	3463c83a 	sub	r17,r6,r17
 4004e58:	4a07c83a 	sub	r3,r9,r8
 4004e5c:	344d803a 	cmpltu	r6,r6,r17
 4004e60:	1991c83a 	sub	r8,r3,r6
 4004e64:	1021883a 	mov	r16,r2
 4004e68:	3825883a 	mov	r18,r7
 4004e6c:	003f0a06 	br	4004a98 <__ram_exceptions_end+0xfbfc4850>
 4004e70:	2023883a 	mov	r17,r4
 4004e74:	003f0d06 	br	4004aac <__ram_exceptions_end+0xfbfc4864>
 4004e78:	0081ffc4 	movi	r2,2047
 4004e7c:	80bf3f1e 	bne	r16,r2,4004b7c <__ram_exceptions_end+0xfbfc4934>
 4004e80:	003ec806 	br	40049a4 <__ram_exceptions_end+0xfbfc475c>
 4004e84:	0005883a 	mov	r2,zero
 4004e88:	003fb106 	br	4004d50 <__ram_exceptions_end+0xfbfc4b08>
 4004e8c:	0007883a 	mov	r3,zero
 4004e90:	003fbc06 	br	4004d84 <__ram_exceptions_end+0xfbfc4b3c>
 4004e94:	4444b03a 	or	r2,r8,r17
 4004e98:	8000871e 	bne	r16,zero,40050b8 <__adddf3+0x790>
 4004e9c:	1000ba26 	beq	r2,zero,4005188 <__adddf3+0x860>
 4004ea0:	4984b03a 	or	r2,r9,r6
 4004ea4:	103ebf26 	beq	r2,zero,40049a4 <__ram_exceptions_end+0xfbfc475c>
 4004ea8:	8985883a 	add	r2,r17,r6
 4004eac:	4247883a 	add	r3,r8,r9
 4004eb0:	1451803a 	cmpltu	r8,r2,r17
 4004eb4:	40d1883a 	add	r8,r8,r3
 4004eb8:	40c0202c 	andhi	r3,r8,128
 4004ebc:	1023883a 	mov	r17,r2
 4004ec0:	183f1a26 	beq	r3,zero,4004b2c <__ram_exceptions_end+0xfbfc48e4>
 4004ec4:	00bfe034 	movhi	r2,65408
 4004ec8:	10bfffc4 	addi	r2,r2,-1
 4004ecc:	2021883a 	mov	r16,r4
 4004ed0:	4090703a 	and	r8,r8,r2
 4004ed4:	003eb306 	br	40049a4 <__ram_exceptions_end+0xfbfc475c>
 4004ed8:	4444b03a 	or	r2,r8,r17
 4004edc:	8000291e 	bne	r16,zero,4004f84 <__adddf3+0x65c>
 4004ee0:	10004b1e 	bne	r2,zero,4005010 <__adddf3+0x6e8>
 4004ee4:	4990b03a 	or	r8,r9,r6
 4004ee8:	40008b26 	beq	r8,zero,4005118 <__adddf3+0x7f0>
 4004eec:	4811883a 	mov	r8,r9
 4004ef0:	3023883a 	mov	r17,r6
 4004ef4:	3825883a 	mov	r18,r7
 4004ef8:	003eaa06 	br	40049a4 <__ram_exceptions_end+0xfbfc475c>
 4004efc:	1021883a 	mov	r16,r2
 4004f00:	0011883a 	mov	r8,zero
 4004f04:	0005883a 	mov	r2,zero
 4004f08:	003f0f06 	br	4004b48 <__ram_exceptions_end+0xfbfc4900>
 4004f0c:	217ff804 	addi	r5,r4,-32
 4004f10:	00800804 	movi	r2,32
 4004f14:	494ad83a 	srl	r5,r9,r5
 4004f18:	20807d26 	beq	r4,r2,4005110 <__adddf3+0x7e8>
 4004f1c:	00801004 	movi	r2,64
 4004f20:	1109c83a 	sub	r4,r2,r4
 4004f24:	4912983a 	sll	r9,r9,r4
 4004f28:	498cb03a 	or	r6,r9,r6
 4004f2c:	300cc03a 	cmpne	r6,r6,zero
 4004f30:	298ab03a 	or	r5,r5,r6
 4004f34:	0013883a 	mov	r9,zero
 4004f38:	003f1506 	br	4004b90 <__ram_exceptions_end+0xfbfc4948>
 4004f3c:	0101ffc4 	movi	r4,2047
 4004f40:	113f9a1e 	bne	r2,r4,4004dac <__ram_exceptions_end+0xfbfc4b64>
 4004f44:	4811883a 	mov	r8,r9
 4004f48:	3023883a 	mov	r17,r6
 4004f4c:	1021883a 	mov	r16,r2
 4004f50:	3825883a 	mov	r18,r7
 4004f54:	003e9306 	br	40049a4 <__ram_exceptions_end+0xfbfc475c>
 4004f58:	8000161e 	bne	r16,zero,4004fb4 <__adddf3+0x68c>
 4004f5c:	444ab03a 	or	r5,r8,r17
 4004f60:	28005126 	beq	r5,zero,40050a8 <__adddf3+0x780>
 4004f64:	0108303a 	nor	r4,zero,r4
 4004f68:	20004d1e 	bne	r4,zero,40050a0 <__adddf3+0x778>
 4004f6c:	89a3883a 	add	r17,r17,r6
 4004f70:	4253883a 	add	r9,r8,r9
 4004f74:	898d803a 	cmpltu	r6,r17,r6
 4004f78:	3251883a 	add	r8,r6,r9
 4004f7c:	1021883a 	mov	r16,r2
 4004f80:	003f0806 	br	4004ba4 <__ram_exceptions_end+0xfbfc495c>
 4004f84:	1000301e 	bne	r2,zero,4005048 <__adddf3+0x720>
 4004f88:	4984b03a 	or	r2,r9,r6
 4004f8c:	10007126 	beq	r2,zero,4005154 <__adddf3+0x82c>
 4004f90:	4811883a 	mov	r8,r9
 4004f94:	3023883a 	mov	r17,r6
 4004f98:	3825883a 	mov	r18,r7
 4004f9c:	0401ffc4 	movi	r16,2047
 4004fa0:	003e8006 	br	40049a4 <__ram_exceptions_end+0xfbfc475c>
 4004fa4:	4462b03a 	or	r17,r8,r17
 4004fa8:	8822c03a 	cmpne	r17,r17,zero
 4004fac:	0007883a 	mov	r3,zero
 4004fb0:	003f8b06 	br	4004de0 <__ram_exceptions_end+0xfbfc4b98>
 4004fb4:	0141ffc4 	movi	r5,2047
 4004fb8:	11403b26 	beq	r2,r5,40050a8 <__adddf3+0x780>
 4004fbc:	0109c83a 	sub	r4,zero,r4
 4004fc0:	42002034 	orhi	r8,r8,128
 4004fc4:	01400e04 	movi	r5,56
 4004fc8:	29006716 	blt	r5,r4,4005168 <__adddf3+0x840>
 4004fcc:	014007c4 	movi	r5,31
 4004fd0:	29007016 	blt	r5,r4,4005194 <__adddf3+0x86c>
 4004fd4:	01400804 	movi	r5,32
 4004fd8:	290bc83a 	sub	r5,r5,r4
 4004fdc:	4154983a 	sll	r10,r8,r5
 4004fe0:	890ed83a 	srl	r7,r17,r4
 4004fe4:	894a983a 	sll	r5,r17,r5
 4004fe8:	4108d83a 	srl	r4,r8,r4
 4004fec:	51e2b03a 	or	r17,r10,r7
 4004ff0:	280ac03a 	cmpne	r5,r5,zero
 4004ff4:	8962b03a 	or	r17,r17,r5
 4004ff8:	89a3883a 	add	r17,r17,r6
 4004ffc:	2253883a 	add	r9,r4,r9
 4005000:	898d803a 	cmpltu	r6,r17,r6
 4005004:	3251883a 	add	r8,r6,r9
 4005008:	1021883a 	mov	r16,r2
 400500c:	003ee506 	br	4004ba4 <__ram_exceptions_end+0xfbfc495c>
 4005010:	4984b03a 	or	r2,r9,r6
 4005014:	103e6326 	beq	r2,zero,40049a4 <__ram_exceptions_end+0xfbfc475c>
 4005018:	8987c83a 	sub	r3,r17,r6
 400501c:	88c9803a 	cmpltu	r4,r17,r3
 4005020:	4245c83a 	sub	r2,r8,r9
 4005024:	1105c83a 	sub	r2,r2,r4
 4005028:	1100202c 	andhi	r4,r2,128
 400502c:	203ebb26 	beq	r4,zero,4004b1c <__ram_exceptions_end+0xfbfc48d4>
 4005030:	3463c83a 	sub	r17,r6,r17
 4005034:	4a07c83a 	sub	r3,r9,r8
 4005038:	344d803a 	cmpltu	r6,r6,r17
 400503c:	1991c83a 	sub	r8,r3,r6
 4005040:	3825883a 	mov	r18,r7
 4005044:	003e5706 	br	40049a4 <__ram_exceptions_end+0xfbfc475c>
 4005048:	4984b03a 	or	r2,r9,r6
 400504c:	10002e26 	beq	r2,zero,4005108 <__adddf3+0x7e0>
 4005050:	4004d0fa 	srli	r2,r8,3
 4005054:	8822d0fa 	srli	r17,r17,3
 4005058:	4010977a 	slli	r8,r8,29
 400505c:	10c0022c 	andhi	r3,r2,8
 4005060:	4462b03a 	or	r17,r8,r17
 4005064:	18000826 	beq	r3,zero,4005088 <__adddf3+0x760>
 4005068:	4808d0fa 	srli	r4,r9,3
 400506c:	20c0022c 	andhi	r3,r4,8
 4005070:	1800051e 	bne	r3,zero,4005088 <__adddf3+0x760>
 4005074:	300cd0fa 	srli	r6,r6,3
 4005078:	4806977a 	slli	r3,r9,29
 400507c:	2005883a 	mov	r2,r4
 4005080:	3825883a 	mov	r18,r7
 4005084:	19a2b03a 	or	r17,r3,r6
 4005088:	8810d77a 	srli	r8,r17,29
 400508c:	100490fa 	slli	r2,r2,3
 4005090:	882290fa 	slli	r17,r17,3
 4005094:	0401ffc4 	movi	r16,2047
 4005098:	4090b03a 	or	r8,r8,r2
 400509c:	003e4106 	br	40049a4 <__ram_exceptions_end+0xfbfc475c>
 40050a0:	0141ffc4 	movi	r5,2047
 40050a4:	117fc71e 	bne	r2,r5,4004fc4 <__ram_exceptions_end+0xfbfc4d7c>
 40050a8:	4811883a 	mov	r8,r9
 40050ac:	3023883a 	mov	r17,r6
 40050b0:	1021883a 	mov	r16,r2
 40050b4:	003e3b06 	br	40049a4 <__ram_exceptions_end+0xfbfc475c>
 40050b8:	10002f26 	beq	r2,zero,4005178 <__adddf3+0x850>
 40050bc:	4984b03a 	or	r2,r9,r6
 40050c0:	10001126 	beq	r2,zero,4005108 <__adddf3+0x7e0>
 40050c4:	4004d0fa 	srli	r2,r8,3
 40050c8:	8822d0fa 	srli	r17,r17,3
 40050cc:	4010977a 	slli	r8,r8,29
 40050d0:	10c0022c 	andhi	r3,r2,8
 40050d4:	4462b03a 	or	r17,r8,r17
 40050d8:	183feb26 	beq	r3,zero,4005088 <__ram_exceptions_end+0xfbfc4e40>
 40050dc:	4808d0fa 	srli	r4,r9,3
 40050e0:	20c0022c 	andhi	r3,r4,8
 40050e4:	183fe81e 	bne	r3,zero,4005088 <__ram_exceptions_end+0xfbfc4e40>
 40050e8:	300cd0fa 	srli	r6,r6,3
 40050ec:	4806977a 	slli	r3,r9,29
 40050f0:	2005883a 	mov	r2,r4
 40050f4:	19a2b03a 	or	r17,r3,r6
 40050f8:	003fe306 	br	4005088 <__ram_exceptions_end+0xfbfc4e40>
 40050fc:	0011883a 	mov	r8,zero
 4005100:	0005883a 	mov	r2,zero
 4005104:	003e3f06 	br	4004a04 <__ram_exceptions_end+0xfbfc47bc>
 4005108:	0401ffc4 	movi	r16,2047
 400510c:	003e2506 	br	40049a4 <__ram_exceptions_end+0xfbfc475c>
 4005110:	0013883a 	mov	r9,zero
 4005114:	003f8406 	br	4004f28 <__ram_exceptions_end+0xfbfc4ce0>
 4005118:	0005883a 	mov	r2,zero
 400511c:	0007883a 	mov	r3,zero
 4005120:	003e8906 	br	4004b48 <__ram_exceptions_end+0xfbfc4900>
 4005124:	197ff804 	addi	r5,r3,-32
 4005128:	01000804 	movi	r4,32
 400512c:	414ad83a 	srl	r5,r8,r5
 4005130:	19002426 	beq	r3,r4,40051c4 <__adddf3+0x89c>
 4005134:	01001004 	movi	r4,64
 4005138:	20c7c83a 	sub	r3,r4,r3
 400513c:	40c6983a 	sll	r3,r8,r3
 4005140:	1c46b03a 	or	r3,r3,r17
 4005144:	1806c03a 	cmpne	r3,r3,zero
 4005148:	28e2b03a 	or	r17,r5,r3
 400514c:	0007883a 	mov	r3,zero
 4005150:	003f2306 	br	4004de0 <__ram_exceptions_end+0xfbfc4b98>
 4005154:	0007883a 	mov	r3,zero
 4005158:	5811883a 	mov	r8,r11
 400515c:	00bfffc4 	movi	r2,-1
 4005160:	0401ffc4 	movi	r16,2047
 4005164:	003e7806 	br	4004b48 <__ram_exceptions_end+0xfbfc4900>
 4005168:	4462b03a 	or	r17,r8,r17
 400516c:	8822c03a 	cmpne	r17,r17,zero
 4005170:	0009883a 	mov	r4,zero
 4005174:	003fa006 	br	4004ff8 <__ram_exceptions_end+0xfbfc4db0>
 4005178:	4811883a 	mov	r8,r9
 400517c:	3023883a 	mov	r17,r6
 4005180:	0401ffc4 	movi	r16,2047
 4005184:	003e0706 	br	40049a4 <__ram_exceptions_end+0xfbfc475c>
 4005188:	4811883a 	mov	r8,r9
 400518c:	3023883a 	mov	r17,r6
 4005190:	003e0406 	br	40049a4 <__ram_exceptions_end+0xfbfc475c>
 4005194:	21fff804 	addi	r7,r4,-32
 4005198:	01400804 	movi	r5,32
 400519c:	41ced83a 	srl	r7,r8,r7
 40051a0:	21400a26 	beq	r4,r5,40051cc <__adddf3+0x8a4>
 40051a4:	01401004 	movi	r5,64
 40051a8:	2909c83a 	sub	r4,r5,r4
 40051ac:	4108983a 	sll	r4,r8,r4
 40051b0:	2448b03a 	or	r4,r4,r17
 40051b4:	2008c03a 	cmpne	r4,r4,zero
 40051b8:	3922b03a 	or	r17,r7,r4
 40051bc:	0009883a 	mov	r4,zero
 40051c0:	003f8d06 	br	4004ff8 <__ram_exceptions_end+0xfbfc4db0>
 40051c4:	0007883a 	mov	r3,zero
 40051c8:	003fdd06 	br	4005140 <__ram_exceptions_end+0xfbfc4ef8>
 40051cc:	0009883a 	mov	r4,zero
 40051d0:	003ff706 	br	40051b0 <__ram_exceptions_end+0xfbfc4f68>

040051d4 <__eqdf2>:
 40051d4:	2804d53a 	srli	r2,r5,20
 40051d8:	3806d53a 	srli	r3,r7,20
 40051dc:	02000434 	movhi	r8,16
 40051e0:	423fffc4 	addi	r8,r8,-1
 40051e4:	1081ffcc 	andi	r2,r2,2047
 40051e8:	0281ffc4 	movi	r10,2047
 40051ec:	2a12703a 	and	r9,r5,r8
 40051f0:	18c1ffcc 	andi	r3,r3,2047
 40051f4:	3a10703a 	and	r8,r7,r8
 40051f8:	280ad7fa 	srli	r5,r5,31
 40051fc:	380ed7fa 	srli	r7,r7,31
 4005200:	12801026 	beq	r2,r10,4005244 <__eqdf2+0x70>
 4005204:	0281ffc4 	movi	r10,2047
 4005208:	1a800a26 	beq	r3,r10,4005234 <__eqdf2+0x60>
 400520c:	10c00226 	beq	r2,r3,4005218 <__eqdf2+0x44>
 4005210:	00800044 	movi	r2,1
 4005214:	f800283a 	ret
 4005218:	4a3ffd1e 	bne	r9,r8,4005210 <__ram_exceptions_end+0xfbfc4fc8>
 400521c:	21bffc1e 	bne	r4,r6,4005210 <__ram_exceptions_end+0xfbfc4fc8>
 4005220:	29c00c26 	beq	r5,r7,4005254 <__eqdf2+0x80>
 4005224:	103ffa1e 	bne	r2,zero,4005210 <__ram_exceptions_end+0xfbfc4fc8>
 4005228:	2244b03a 	or	r2,r4,r9
 400522c:	1004c03a 	cmpne	r2,r2,zero
 4005230:	f800283a 	ret
 4005234:	3214b03a 	or	r10,r6,r8
 4005238:	503ff426 	beq	r10,zero,400520c <__ram_exceptions_end+0xfbfc4fc4>
 400523c:	00800044 	movi	r2,1
 4005240:	f800283a 	ret
 4005244:	2254b03a 	or	r10,r4,r9
 4005248:	503fee26 	beq	r10,zero,4005204 <__ram_exceptions_end+0xfbfc4fbc>
 400524c:	00800044 	movi	r2,1
 4005250:	f800283a 	ret
 4005254:	0005883a 	mov	r2,zero
 4005258:	f800283a 	ret

0400525c <__gedf2>:
 400525c:	2804d53a 	srli	r2,r5,20
 4005260:	3806d53a 	srli	r3,r7,20
 4005264:	02000434 	movhi	r8,16
 4005268:	423fffc4 	addi	r8,r8,-1
 400526c:	1081ffcc 	andi	r2,r2,2047
 4005270:	0241ffc4 	movi	r9,2047
 4005274:	2a14703a 	and	r10,r5,r8
 4005278:	18c1ffcc 	andi	r3,r3,2047
 400527c:	3a10703a 	and	r8,r7,r8
 4005280:	280ad7fa 	srli	r5,r5,31
 4005284:	380ed7fa 	srli	r7,r7,31
 4005288:	12401d26 	beq	r2,r9,4005300 <__gedf2+0xa4>
 400528c:	0241ffc4 	movi	r9,2047
 4005290:	1a401226 	beq	r3,r9,40052dc <__gedf2+0x80>
 4005294:	1000081e 	bne	r2,zero,40052b8 <__gedf2+0x5c>
 4005298:	2296b03a 	or	r11,r4,r10
 400529c:	5813003a 	cmpeq	r9,r11,zero
 40052a0:	1800091e 	bne	r3,zero,40052c8 <__gedf2+0x6c>
 40052a4:	3218b03a 	or	r12,r6,r8
 40052a8:	6000071e 	bne	r12,zero,40052c8 <__gedf2+0x6c>
 40052ac:	0005883a 	mov	r2,zero
 40052b0:	5800101e 	bne	r11,zero,40052f4 <__gedf2+0x98>
 40052b4:	f800283a 	ret
 40052b8:	18000c1e 	bne	r3,zero,40052ec <__gedf2+0x90>
 40052bc:	3212b03a 	or	r9,r6,r8
 40052c0:	48000c26 	beq	r9,zero,40052f4 <__gedf2+0x98>
 40052c4:	0013883a 	mov	r9,zero
 40052c8:	39c03fcc 	andi	r7,r7,255
 40052cc:	48000826 	beq	r9,zero,40052f0 <__gedf2+0x94>
 40052d0:	38000926 	beq	r7,zero,40052f8 <__gedf2+0x9c>
 40052d4:	00800044 	movi	r2,1
 40052d8:	f800283a 	ret
 40052dc:	3212b03a 	or	r9,r6,r8
 40052e0:	483fec26 	beq	r9,zero,4005294 <__ram_exceptions_end+0xfbfc504c>
 40052e4:	00bfff84 	movi	r2,-2
 40052e8:	f800283a 	ret
 40052ec:	39c03fcc 	andi	r7,r7,255
 40052f0:	29c00626 	beq	r5,r7,400530c <__gedf2+0xb0>
 40052f4:	283ff726 	beq	r5,zero,40052d4 <__ram_exceptions_end+0xfbfc508c>
 40052f8:	00bfffc4 	movi	r2,-1
 40052fc:	f800283a 	ret
 4005300:	2292b03a 	or	r9,r4,r10
 4005304:	483fe126 	beq	r9,zero,400528c <__ram_exceptions_end+0xfbfc5044>
 4005308:	003ff606 	br	40052e4 <__ram_exceptions_end+0xfbfc509c>
 400530c:	18bff916 	blt	r3,r2,40052f4 <__ram_exceptions_end+0xfbfc50ac>
 4005310:	10c00316 	blt	r2,r3,4005320 <__gedf2+0xc4>
 4005314:	42bff736 	bltu	r8,r10,40052f4 <__ram_exceptions_end+0xfbfc50ac>
 4005318:	52000326 	beq	r10,r8,4005328 <__gedf2+0xcc>
 400531c:	5200042e 	bgeu	r10,r8,4005330 <__gedf2+0xd4>
 4005320:	283fec1e 	bne	r5,zero,40052d4 <__ram_exceptions_end+0xfbfc508c>
 4005324:	003ff406 	br	40052f8 <__ram_exceptions_end+0xfbfc50b0>
 4005328:	313ff236 	bltu	r6,r4,40052f4 <__ram_exceptions_end+0xfbfc50ac>
 400532c:	21bffc36 	bltu	r4,r6,4005320 <__ram_exceptions_end+0xfbfc50d8>
 4005330:	0005883a 	mov	r2,zero
 4005334:	f800283a 	ret

04005338 <__muldf3>:
 4005338:	defff304 	addi	sp,sp,-52
 400533c:	2804d53a 	srli	r2,r5,20
 4005340:	dd800915 	stw	r22,36(sp)
 4005344:	282cd7fa 	srli	r22,r5,31
 4005348:	dc000315 	stw	r16,12(sp)
 400534c:	04000434 	movhi	r16,16
 4005350:	dd400815 	stw	r21,32(sp)
 4005354:	dc800515 	stw	r18,20(sp)
 4005358:	843fffc4 	addi	r16,r16,-1
 400535c:	dfc00c15 	stw	ra,48(sp)
 4005360:	df000b15 	stw	fp,44(sp)
 4005364:	ddc00a15 	stw	r23,40(sp)
 4005368:	dd000715 	stw	r20,28(sp)
 400536c:	dcc00615 	stw	r19,24(sp)
 4005370:	dc400415 	stw	r17,16(sp)
 4005374:	1481ffcc 	andi	r18,r2,2047
 4005378:	2c20703a 	and	r16,r5,r16
 400537c:	b02b883a 	mov	r21,r22
 4005380:	b2403fcc 	andi	r9,r22,255
 4005384:	90006026 	beq	r18,zero,4005508 <__muldf3+0x1d0>
 4005388:	0081ffc4 	movi	r2,2047
 400538c:	2029883a 	mov	r20,r4
 4005390:	90803626 	beq	r18,r2,400546c <__muldf3+0x134>
 4005394:	80800434 	orhi	r2,r16,16
 4005398:	100490fa 	slli	r2,r2,3
 400539c:	2020d77a 	srli	r16,r4,29
 40053a0:	202890fa 	slli	r20,r4,3
 40053a4:	94bf0044 	addi	r18,r18,-1023
 40053a8:	80a0b03a 	or	r16,r16,r2
 40053ac:	0027883a 	mov	r19,zero
 40053b0:	0039883a 	mov	fp,zero
 40053b4:	3804d53a 	srli	r2,r7,20
 40053b8:	382ed7fa 	srli	r23,r7,31
 40053bc:	04400434 	movhi	r17,16
 40053c0:	8c7fffc4 	addi	r17,r17,-1
 40053c4:	1081ffcc 	andi	r2,r2,2047
 40053c8:	3011883a 	mov	r8,r6
 40053cc:	3c62703a 	and	r17,r7,r17
 40053d0:	ba803fcc 	andi	r10,r23,255
 40053d4:	10006d26 	beq	r2,zero,400558c <__muldf3+0x254>
 40053d8:	00c1ffc4 	movi	r3,2047
 40053dc:	10c06526 	beq	r2,r3,4005574 <__muldf3+0x23c>
 40053e0:	88c00434 	orhi	r3,r17,16
 40053e4:	180690fa 	slli	r3,r3,3
 40053e8:	3022d77a 	srli	r17,r6,29
 40053ec:	301090fa 	slli	r8,r6,3
 40053f0:	10bf0044 	addi	r2,r2,-1023
 40053f4:	88e2b03a 	or	r17,r17,r3
 40053f8:	000b883a 	mov	r5,zero
 40053fc:	9085883a 	add	r2,r18,r2
 4005400:	2cc8b03a 	or	r4,r5,r19
 4005404:	00c003c4 	movi	r3,15
 4005408:	bdacf03a 	xor	r22,r23,r22
 400540c:	12c00044 	addi	r11,r2,1
 4005410:	19009936 	bltu	r3,r4,4005678 <__muldf3+0x340>
 4005414:	200890ba 	slli	r4,r4,2
 4005418:	00c10034 	movhi	r3,1024
 400541c:	18d50b04 	addi	r3,r3,21548
 4005420:	20c9883a 	add	r4,r4,r3
 4005424:	20c00017 	ldw	r3,0(r4)
 4005428:	1800683a 	jmp	r3
 400542c:	04005678 	rdprs	r16,zero,345
 4005430:	0400548c 	andi	r16,zero,338
 4005434:	0400548c 	andi	r16,zero,338
 4005438:	04005488 	cmpgei	r16,zero,338
 400543c:	04005654 	movui	r16,345
 4005440:	04005654 	movui	r16,345
 4005444:	0400563c 	xorhi	r16,zero,344
 4005448:	04005488 	cmpgei	r16,zero,338
 400544c:	04005654 	movui	r16,345
 4005450:	0400563c 	xorhi	r16,zero,344
 4005454:	04005654 	movui	r16,345
 4005458:	04005488 	cmpgei	r16,zero,338
 400545c:	04005664 	muli	r16,zero,345
 4005460:	04005664 	muli	r16,zero,345
 4005464:	04005664 	muli	r16,zero,345
 4005468:	04005880 	call	400588 <__alt_mem_new_sdram_controller_0-0x3bffa78>
 400546c:	2404b03a 	or	r2,r4,r16
 4005470:	10006f1e 	bne	r2,zero,4005630 <__muldf3+0x2f8>
 4005474:	04c00204 	movi	r19,8
 4005478:	0021883a 	mov	r16,zero
 400547c:	0029883a 	mov	r20,zero
 4005480:	07000084 	movi	fp,2
 4005484:	003fcb06 	br	40053b4 <__ram_exceptions_end+0xfbfc516c>
 4005488:	502d883a 	mov	r22,r10
 400548c:	00800084 	movi	r2,2
 4005490:	28805726 	beq	r5,r2,40055f0 <__muldf3+0x2b8>
 4005494:	008000c4 	movi	r2,3
 4005498:	28816626 	beq	r5,r2,4005a34 <__muldf3+0x6fc>
 400549c:	00800044 	movi	r2,1
 40054a0:	2881411e 	bne	r5,r2,40059a8 <__muldf3+0x670>
 40054a4:	b02b883a 	mov	r21,r22
 40054a8:	0005883a 	mov	r2,zero
 40054ac:	000b883a 	mov	r5,zero
 40054b0:	0029883a 	mov	r20,zero
 40054b4:	1004953a 	slli	r2,r2,20
 40054b8:	a8c03fcc 	andi	r3,r21,255
 40054bc:	04400434 	movhi	r17,16
 40054c0:	8c7fffc4 	addi	r17,r17,-1
 40054c4:	180697fa 	slli	r3,r3,31
 40054c8:	2c4a703a 	and	r5,r5,r17
 40054cc:	288ab03a 	or	r5,r5,r2
 40054d0:	28c6b03a 	or	r3,r5,r3
 40054d4:	a005883a 	mov	r2,r20
 40054d8:	dfc00c17 	ldw	ra,48(sp)
 40054dc:	df000b17 	ldw	fp,44(sp)
 40054e0:	ddc00a17 	ldw	r23,40(sp)
 40054e4:	dd800917 	ldw	r22,36(sp)
 40054e8:	dd400817 	ldw	r21,32(sp)
 40054ec:	dd000717 	ldw	r20,28(sp)
 40054f0:	dcc00617 	ldw	r19,24(sp)
 40054f4:	dc800517 	ldw	r18,20(sp)
 40054f8:	dc400417 	ldw	r17,16(sp)
 40054fc:	dc000317 	ldw	r16,12(sp)
 4005500:	dec00d04 	addi	sp,sp,52
 4005504:	f800283a 	ret
 4005508:	2404b03a 	or	r2,r4,r16
 400550c:	2027883a 	mov	r19,r4
 4005510:	10004226 	beq	r2,zero,400561c <__muldf3+0x2e4>
 4005514:	8000fc26 	beq	r16,zero,4005908 <__muldf3+0x5d0>
 4005518:	8009883a 	mov	r4,r16
 400551c:	d9800215 	stw	r6,8(sp)
 4005520:	d9c00015 	stw	r7,0(sp)
 4005524:	da400115 	stw	r9,4(sp)
 4005528:	40065b80 	call	40065b8 <__clzsi2>
 400552c:	d9800217 	ldw	r6,8(sp)
 4005530:	d9c00017 	ldw	r7,0(sp)
 4005534:	da400117 	ldw	r9,4(sp)
 4005538:	113ffd44 	addi	r4,r2,-11
 400553c:	00c00704 	movi	r3,28
 4005540:	1900ed16 	blt	r3,r4,40058f8 <__muldf3+0x5c0>
 4005544:	00c00744 	movi	r3,29
 4005548:	147ffe04 	addi	r17,r2,-8
 400554c:	1907c83a 	sub	r3,r3,r4
 4005550:	8460983a 	sll	r16,r16,r17
 4005554:	98c6d83a 	srl	r3,r19,r3
 4005558:	9c68983a 	sll	r20,r19,r17
 400555c:	1c20b03a 	or	r16,r3,r16
 4005560:	1080fcc4 	addi	r2,r2,1011
 4005564:	00a5c83a 	sub	r18,zero,r2
 4005568:	0027883a 	mov	r19,zero
 400556c:	0039883a 	mov	fp,zero
 4005570:	003f9006 	br	40053b4 <__ram_exceptions_end+0xfbfc516c>
 4005574:	3446b03a 	or	r3,r6,r17
 4005578:	1800261e 	bne	r3,zero,4005614 <__muldf3+0x2dc>
 400557c:	0023883a 	mov	r17,zero
 4005580:	0011883a 	mov	r8,zero
 4005584:	01400084 	movi	r5,2
 4005588:	003f9c06 	br	40053fc <__ram_exceptions_end+0xfbfc51b4>
 400558c:	3446b03a 	or	r3,r6,r17
 4005590:	18001c26 	beq	r3,zero,4005604 <__muldf3+0x2cc>
 4005594:	8800ce26 	beq	r17,zero,40058d0 <__muldf3+0x598>
 4005598:	8809883a 	mov	r4,r17
 400559c:	d9800215 	stw	r6,8(sp)
 40055a0:	da400115 	stw	r9,4(sp)
 40055a4:	da800015 	stw	r10,0(sp)
 40055a8:	40065b80 	call	40065b8 <__clzsi2>
 40055ac:	d9800217 	ldw	r6,8(sp)
 40055b0:	da400117 	ldw	r9,4(sp)
 40055b4:	da800017 	ldw	r10,0(sp)
 40055b8:	113ffd44 	addi	r4,r2,-11
 40055bc:	00c00704 	movi	r3,28
 40055c0:	1900bf16 	blt	r3,r4,40058c0 <__muldf3+0x588>
 40055c4:	00c00744 	movi	r3,29
 40055c8:	123ffe04 	addi	r8,r2,-8
 40055cc:	1907c83a 	sub	r3,r3,r4
 40055d0:	8a22983a 	sll	r17,r17,r8
 40055d4:	30c6d83a 	srl	r3,r6,r3
 40055d8:	3210983a 	sll	r8,r6,r8
 40055dc:	1c62b03a 	or	r17,r3,r17
 40055e0:	1080fcc4 	addi	r2,r2,1011
 40055e4:	0085c83a 	sub	r2,zero,r2
 40055e8:	000b883a 	mov	r5,zero
 40055ec:	003f8306 	br	40053fc <__ram_exceptions_end+0xfbfc51b4>
 40055f0:	b02b883a 	mov	r21,r22
 40055f4:	0081ffc4 	movi	r2,2047
 40055f8:	000b883a 	mov	r5,zero
 40055fc:	0029883a 	mov	r20,zero
 4005600:	003fac06 	br	40054b4 <__ram_exceptions_end+0xfbfc526c>
 4005604:	0023883a 	mov	r17,zero
 4005608:	0011883a 	mov	r8,zero
 400560c:	01400044 	movi	r5,1
 4005610:	003f7a06 	br	40053fc <__ram_exceptions_end+0xfbfc51b4>
 4005614:	014000c4 	movi	r5,3
 4005618:	003f7806 	br	40053fc <__ram_exceptions_end+0xfbfc51b4>
 400561c:	04c00104 	movi	r19,4
 4005620:	0021883a 	mov	r16,zero
 4005624:	0029883a 	mov	r20,zero
 4005628:	07000044 	movi	fp,1
 400562c:	003f6106 	br	40053b4 <__ram_exceptions_end+0xfbfc516c>
 4005630:	04c00304 	movi	r19,12
 4005634:	070000c4 	movi	fp,3
 4005638:	003f5e06 	br	40053b4 <__ram_exceptions_end+0xfbfc516c>
 400563c:	01400434 	movhi	r5,16
 4005640:	002b883a 	mov	r21,zero
 4005644:	297fffc4 	addi	r5,r5,-1
 4005648:	053fffc4 	movi	r20,-1
 400564c:	0081ffc4 	movi	r2,2047
 4005650:	003f9806 	br	40054b4 <__ram_exceptions_end+0xfbfc526c>
 4005654:	8023883a 	mov	r17,r16
 4005658:	a011883a 	mov	r8,r20
 400565c:	e00b883a 	mov	r5,fp
 4005660:	003f8a06 	br	400548c <__ram_exceptions_end+0xfbfc5244>
 4005664:	8023883a 	mov	r17,r16
 4005668:	a011883a 	mov	r8,r20
 400566c:	482d883a 	mov	r22,r9
 4005670:	e00b883a 	mov	r5,fp
 4005674:	003f8506 	br	400548c <__ram_exceptions_end+0xfbfc5244>
 4005678:	a00ad43a 	srli	r5,r20,16
 400567c:	401ad43a 	srli	r13,r8,16
 4005680:	a53fffcc 	andi	r20,r20,65535
 4005684:	423fffcc 	andi	r8,r8,65535
 4005688:	4519383a 	mul	r12,r8,r20
 400568c:	4147383a 	mul	r3,r8,r5
 4005690:	6d09383a 	mul	r4,r13,r20
 4005694:	600cd43a 	srli	r6,r12,16
 4005698:	2b5d383a 	mul	r14,r5,r13
 400569c:	20c9883a 	add	r4,r4,r3
 40056a0:	310d883a 	add	r6,r6,r4
 40056a4:	30c0022e 	bgeu	r6,r3,40056b0 <__muldf3+0x378>
 40056a8:	00c00074 	movhi	r3,1
 40056ac:	70dd883a 	add	r14,r14,r3
 40056b0:	8826d43a 	srli	r19,r17,16
 40056b4:	8bffffcc 	andi	r15,r17,65535
 40056b8:	7d23383a 	mul	r17,r15,r20
 40056bc:	7949383a 	mul	r4,r15,r5
 40056c0:	9d29383a 	mul	r20,r19,r20
 40056c4:	8814d43a 	srli	r10,r17,16
 40056c8:	3012943a 	slli	r9,r6,16
 40056cc:	a129883a 	add	r20,r20,r4
 40056d0:	633fffcc 	andi	r12,r12,65535
 40056d4:	5515883a 	add	r10,r10,r20
 40056d8:	3006d43a 	srli	r3,r6,16
 40056dc:	4b13883a 	add	r9,r9,r12
 40056e0:	2ccb383a 	mul	r5,r5,r19
 40056e4:	5100022e 	bgeu	r10,r4,40056f0 <__muldf3+0x3b8>
 40056e8:	01000074 	movhi	r4,1
 40056ec:	290b883a 	add	r5,r5,r4
 40056f0:	802ad43a 	srli	r21,r16,16
 40056f4:	843fffcc 	andi	r16,r16,65535
 40056f8:	440d383a 	mul	r6,r8,r16
 40056fc:	4565383a 	mul	r18,r8,r21
 4005700:	8349383a 	mul	r4,r16,r13
 4005704:	500e943a 	slli	r7,r10,16
 4005708:	3010d43a 	srli	r8,r6,16
 400570c:	5028d43a 	srli	r20,r10,16
 4005710:	2489883a 	add	r4,r4,r18
 4005714:	8abfffcc 	andi	r10,r17,65535
 4005718:	3a95883a 	add	r10,r7,r10
 400571c:	4119883a 	add	r12,r8,r4
 4005720:	a169883a 	add	r20,r20,r5
 4005724:	1a87883a 	add	r3,r3,r10
 4005728:	6d5b383a 	mul	r13,r13,r21
 400572c:	6480022e 	bgeu	r12,r18,4005738 <__muldf3+0x400>
 4005730:	01000074 	movhi	r4,1
 4005734:	691b883a 	add	r13,r13,r4
 4005738:	7c25383a 	mul	r18,r15,r16
 400573c:	7d4b383a 	mul	r5,r15,r21
 4005740:	84cf383a 	mul	r7,r16,r19
 4005744:	901ed43a 	srli	r15,r18,16
 4005748:	6008d43a 	srli	r4,r12,16
 400574c:	6010943a 	slli	r8,r12,16
 4005750:	394f883a 	add	r7,r7,r5
 4005754:	333fffcc 	andi	r12,r6,65535
 4005758:	79df883a 	add	r15,r15,r7
 400575c:	235b883a 	add	r13,r4,r13
 4005760:	9d63383a 	mul	r17,r19,r21
 4005764:	4309883a 	add	r4,r8,r12
 4005768:	7940022e 	bgeu	r15,r5,4005774 <__muldf3+0x43c>
 400576c:	01400074 	movhi	r5,1
 4005770:	8963883a 	add	r17,r17,r5
